(dp1
S'OriginalConfig'
p2
ccopy_reg
_reconstructor
p3
(cWMCore.Configuration
Configuration
p4
c__builtin__
object
p5
NtRp6
(dp7
S'Site'
p8
g3
(cWMCore.Configuration
ConfigSection
p9
g5
NtRp10
(dp11
S'_internal_skipChecks'
p12
I00
sS'_internal_documentation'
p13
S''
sS'_internal_settings'
p14
c__builtin__
set
p15
((lp16
S'blacklist'
p17
aS'storageSite'
p18
atRp19
sS'_internal_name'
p20
g8
sS'_internal_docstrings'
p21
(dp22
sg17
(lp23
S'T2_US_Caltech'
p24
asS'_internal_children'
p25
g15
((ltRp26
sg18
S'T2_IT_Rome'
p27
sS'_internal_parent_ref'
p28
NsbsS'_internal_sections'
p29
(lp30
S'General'
p31
aS'JobType'
p32
aS'Data'
p33
ag8
aS'User'
p34
aS'Debug'
p35
asg31
g3
(g9
g5
NtRp36
(dp37
S'workArea'
p38
S'BParkingNANO_2021Jul15'
p39
sg12
I00
sg13
S''
sg14
g15
((lp40
g38
aS'transferOutputs'
p41
aS'transferLogs'
p42
aS'requestName'
p43
atRp44
sg20
g31
sg21
(dp45
sg41
I01
sg25
g15
((ltRp46
sg43
S'data_Run2018A_part1'
p47
sg28
Nsg42
I01
sbsS'_internal_webapps'
p48
(lp49
sg34
g3
(g9
g5
NtRp50
(dp51
g12
I00
sg13
S''
sg14
g15
((ltRp52
sg20
g34
sg21
(dp53
sg25
g15
((ltRp54
sg28
NsbsS'_internal_components'
p55
(lp56
sg35
g3
(g9
g5
NtRp57
(dp58
S'extraJDL'
p59
(lp60
S'+CMS_ALLOW_OVERFLOW=False'
p61
asg12
I00
sg13
S''
sg14
g15
((lp62
g59
atRp63
sg20
g35
sg21
(dp64
sg25
g15
((ltRp65
sg28
Nsbsg33
g3
(g9
g5
NtRp66
(dp67
S'inputDataset'
p68
S'/ParkingBPH1/Run2018A-05May2019-v1/MINIAOD'
p69
sg12
I00
sS'splitting'
p70
S'LumiBased'
p71
sS'unitsPerJob'
p72
I3
sg13
S''
sg14
g15
((lp73
g68
aS'publication'
p74
ag72
ag70
aS'inputDBS'
p75
aS'lumiMask'
p76
aS'outLFNDirBase'
p77
atRp78
sg20
g33
sg75
S'global'
p79
sg21
(dp80
sg25
g15
((ltRp81
sg77
S'/store/user/ratramon/HNLGen_ntuples/'
p82
sg28
Nsg76
S'https://cms-service-dqmdc.web.cern.ch/CAF/certification/Collisions18/13TeV/ReReco/Cert_314472-325175_13TeV_17SeptEarlyReReco2018ABC_PromptEraD_Collisions18_JSON.txt'
p83
sg74
I00
sbsg32
g3
(g9
g5
NtRp84
(dp85
S'inputFiles'
p86
(lp87
S'../test/lowPtEleReg_2018_02062020_nv.db'
p88
asg12
I00
sS'pyCfgParams'
p89
(lp90
S'isMC=False'
p91
aS'reportEvery=1000'
p92
aS'tag=2021Jul15'
p93
aS'globalTag=102X_dataRun2_v11'
p94
asg13
S''
sg14
g15
((lp95
g86
ag89
aS'pluginName'
p96
aS'outputFiles'
p97
aS'allowUndistributedCMSSW'
p98
aS'psetName'
p99
aS'maxJobRuntimeMin'
p100
atRp101
sg20
g32
sg21
(dp102
sg96
S'Analysis'
p103
sg97
(lp104
S'BParkNANO_data_2021Jul15.root'
p105
asg25
g15
((ltRp106
sg98
I01
sg99
S'../test/run_nano_HNLToL_cfg.py'
p107
sg28
Nsg100
I3000
sbsbsS'voGroup'
p108
S''
sS'Server'
p109
S'cmsweb.cern.ch'
p110
sS'instance'
p111
S'prod'
p112
sS'RequestName'
p113
V210715_125419:ratramon_crab_data_Run2018A_part1
p114
sS'voRole'
p115
S'NULL'
p116
sS'Port'
p117
S''
s.