(dp0
S'OriginalConfig'
p1
ccopy_reg
_reconstructor
p2
(cWMCore.Configuration
Configuration
p3
c__builtin__
object
p4
Ntp5
Rp6
(dp7
S'Site'
p8
g2
(cWMCore.Configuration
ConfigSection
p9
g4
Ntp10
Rp11
(dp12
S'_internal_skipChecks'
p13
I00
sS'_internal_documentation'
p14
S''
p15
sS'_internal_settings'
p16
c__builtin__
set
p17
((lp18
S'blacklist'
p19
aS'storageSite'
p20
atp21
Rp22
sS'_internal_name'
p23
g8
sS'_internal_docstrings'
p24
(dp25
sg19
(lp26
S'T2_US_Caltech'
p27
asS'_internal_children'
p28
g17
((lp29
tp30
Rp31
sg20
S'T2_IT_Rome'
p32
sS'_internal_parent_ref'
p33
NsbsS'_internal_sections'
p34
(lp35
S'General'
p36
aS'JobType'
p37
aS'Data'
p38
ag8
aS'User'
p39
aS'Debug'
p40
asg39
g2
(g9
g4
Ntp41
Rp42
(dp43
g13
I00
sg14
g15
sg16
g17
((lp44
tp45
Rp46
sg23
g39
sg24
(dp47
sg28
g17
((lp48
tp49
Rp50
sg33
Nsbsg40
g2
(g9
g4
Ntp51
Rp52
(dp53
S'extraJDL'
p54
(lp55
S'+CMS_ALLOW_OVERFLOW=False'
p56
asg13
I00
sg14
g15
sg16
g17
((lp57
g54
atp58
Rp59
sg23
g40
sg24
(dp60
sg28
g17
((lp61
tp62
Rp63
sg33
Nsbsg36
g2
(g9
g4
Ntp64
Rp65
(dp66
S'workArea'
p67
S'BParkingNANO_loose_2022Jan14'
p68
sg13
I00
sg14
g15
sg16
g17
((lp69
g67
aS'transferOutputs'
p70
aS'transferLogs'
p71
aS'requestName'
p72
atp73
Rp74
sg23
g36
sg24
(dp75
sg70
I01
sg28
g17
((lp76
tp77
Rp78
sg72
S'QCD_Pt-120to170'
p79
sg33
Nsg71
I01
sbsg38
g2
(g9
g4
Ntp80
Rp81
(dp82
S'inputDataset'
p83
S'/QCD_Pt-120to170_MuEnrichedPt5_TuneCP5_13TeV_pythia8/RunIIAutumn18MiniAOD-102X_upgrade2018_realistic_v15_ext1-v2/MINIAODSIM'
p84
sg13
I00
sS'splitting'
p85
S'FileBased'
p86
sS'unitsPerJob'
p87
I1
sg14
g15
sg16
g17
((lp88
g83
aS'publication'
p89
ag87
ag85
aS'inputDBS'
p90
aS'lumiMask'
p91
aS'outLFNDirBase'
p92
atp93
Rp94
sg23
g38
sg90
S'global'
p95
sg24
(dp96
sg28
g17
((lp97
tp98
Rp99
sg92
S'/store/user/ratramon/HNLGen_ntuples/'
p100
sg33
Nsg91
g15
sg89
I00
sbsg37
g2
(g9
g4
Ntp101
Rp102
(dp103
S'inputFiles'
p104
(lp105
S'../test/lowPtEleReg_2018_02062020_nv.db'
p106
asg13
I00
sS'pyCfgParams'
p107
(lp108
S'isMC=True'
p109
aS'reportEvery=1000'
p110
aS'tag=2022Jan14'
p111
aS'globalTag=102X_upgrade2018_realistic_v15'
p112
asg14
g15
sg16
g17
((lp113
g104
ag107
aS'pluginName'
p114
aS'outputFiles'
p115
aS'allowUndistributedCMSSW'
p116
aS'psetName'
p117
aS'maxJobRuntimeMin'
p118
atp119
Rp120
sg23
g37
sg24
(dp121
sg114
S'Analysis'
p122
sg115
(lp123
S'BParkNANO_mc_2022Jan14.root'
p124
asg28
g17
((lp125
tp126
Rp127
sg116
I01
sg117
S'../test/run_nano_HNLToL_cfg.py'
p128
sg33
Nsg118
I3000
sbsbsS'voGroup'
p129
g15
sS'Server'
p130
S'cmsweb.cern.ch'
p131
sS'instance'
p132
S'prod'
p133
sS'RequestName'
p134
V220114_163944:ratramon_crab_QCD_Pt-120to170
p135
sS'voRole'
p136
S'NULL'
p137
sS'Port'
p138
g15
s.