(dp1
S'OriginalConfig'
p2
ccopy_reg
_reconstructor
p3
(cWMCore.Configuration
Configuration
p4
c__builtin__
object
p5
NtRp6
(dp7
S'Site'
p8
g3
(cWMCore.Configuration
ConfigSection
p9
g5
NtRp10
(dp11
S'_internal_skipChecks'
p12
I00
sS'_internal_documentation'
p13
S''
sS'_internal_settings'
p14
c__builtin__
set
p15
((lp16
S'whitelist'
p17
aS'storageSite'
p18
atRp19
sS'_internal_name'
p20
g8
sS'_internal_docstrings'
p21
(dp22
sS'_internal_children'
p23
g15
((ltRp24
sg18
S'T2_IT_Rome'
p25
sS'_internal_parent_ref'
p26
Nsg17
(lp27
g25
asbsS'_internal_sections'
p28
(lp29
S'General'
p30
aS'JobType'
p31
aS'Data'
p32
ag8
aS'User'
p33
aS'Debug'
p34
asg30
g3
(g9
g5
NtRp35
(dp36
S'transferLogs'
p37
I01
sg12
I00
sg13
S''
sg14
g15
((lp38
g37
aS'transferOutputs'
p39
aS'workArea'
p40
aS'requestName'
p41
atRp42
sg20
g30
sg21
(dp43
sg39
I01
sg23
g15
((ltRp44
sg41
S'privateHNL_slimmed_2021Aug09'
p45
sg26
Nsg40
S'crab_privateData_nano_Slimmed'
p46
sbsS'_internal_webapps'
p47
(lp48
sg33
g3
(g9
g5
NtRp49
(dp50
g12
I00
sg13
S''
sg14
g15
((ltRp51
sg20
g33
sg21
(dp52
sg23
g15
((ltRp53
sg26
NsbsS'_internal_components'
p54
(lp55
sg34
g3
(g9
g5
NtRp56
(dp57
g12
I00
sg13
S''
sg14
g15
((ltRp58
sg20
g34
sg21
(dp59
sg23
g15
((ltRp60
sg26
Nsbsg32
g3
(g9
g5
NtRp61
(dp62
S'outputDatasetTag'
p63
S'privateHNLnano_2021Aug09'
p64
sg12
I00
sS'unitsPerJob'
p65
I1
sg13
S''
sg14
g15
((lp66
g63
aS'publication'
p67
ag65
aS'userInputFiles'
p68
aS'splitting'
p69
aS'outLFNDirBase'
p70
aS'outputPrimaryDataset'
p71
atRp72
sg70
S'/store/user/ratramon/HNLGen_ntuples/'
p73
sg20
g32
sg69
S'FileBased'
p74
sg21
(dp75
sg23
g15
((ltRp76
sg71
S'private_BtoDMuN_SlimData'
p77
sg26
Nsg68
(lp78
S'root://cms-xrd-global.cern.ch///store/user/ratramon/HNLGen_ntuples/SlimmedData/BParkingNano_210729_0_10.root\n'
p79
aS'root://cms-xrd-global.cern.ch///store/user/ratramon/HNLGen_ntuples/SlimmedData/BParkingNano_210729_0_11.root\n'
p80
aS'root://cms-xrd-global.cern.ch///store/user/ratramon/HNLGen_ntuples/SlimmedData/BParkingNano_210729_0_12.root\n'
p81
aS'root://cms-xrd-global.cern.ch///store/user/ratramon/HNLGen_ntuples/SlimmedData/BParkingNano_210729_0_13.root\n'
p82
aS'root://cms-xrd-global.cern.ch///store/user/ratramon/HNLGen_ntuples/SlimmedData/BParkingNano_210729_0_14.root\n'
p83
aS'root://cms-xrd-global.cern.ch///store/user/ratramon/HNLGen_ntuples/SlimmedData/BParkingNano_210729_0_15.root\n'
p84
aS'root://cms-xrd-global.cern.ch///store/user/ratramon/HNLGen_ntuples/SlimmedData/BParkingNano_210729_0_16.root\n'
p85
aS'root://cms-xrd-global.cern.ch///store/user/ratramon/HNLGen_ntuples/SlimmedData/BParkingNano_210729_0_17.root\n'
p86
aS'root://cms-xrd-global.cern.ch///store/user/ratramon/HNLGen_ntuples/SlimmedData/BParkingNano_210729_0_18.root\n'
p87
aS'root://cms-xrd-global.cern.ch///store/user/ratramon/HNLGen_ntuples/SlimmedData/BParkingNano_210729_0_19.root\n'
p88
aS'\n'
asg67
I00
sbsg31
g3
(g9
g5
NtRp89
(dp90
g12
I00
sS'scriptArgs'
p91
(lp92
sg13
S''
sg14
g15
((lp93
S'maxMemoryMB'
p94
ag91
aS'disableAutomaticOutputCollection'
p95
aS'scriptExe'
p96
aS'pluginName'
p97
aS'allowUndistributedCMSSW'
p98
aS'psetName'
p99
aS'inputFiles'
p100
atRp101
sg20
g31
sg96
S'/afs/cern.ch/work/r/ratramon/HNL/CommonFrame/CMSSW_10_2_15/src/PhysicsTools/BParkingNano/production/SlimExe.sh'
p102
sg21
(dp103
sg97
S'Analysis'
p104
sg23
g15
((ltRp105
sg98
I01
sg99
S'/afs/cern.ch/work/r/ratramon/HNL/CommonFrame/CMSSW_10_2_15/src/PhysicsTools/BParkingNano/test/run_nano_HNLToL_cfg.py'
p106
sg26
Nsg100
(lp107
S'FrameworkJobReport.xml'
p108
aS'HNL_select.py'
p109
asg95
I00
sg94
I2500
sbsbsS'voGroup'
p110
S''
sS'Server'
p111
S'cmsweb.cern.ch'
p112
sS'instance'
p113
S'prod'
p114
sS'RequestName'
p115
V210809_190015:ratramon_crab_privateHNL_slimmed_2021Aug09
p116
sS'voRole'
p117
S'NULL'
p118
sS'Port'
p119
S''
s.