(dp0
S'OriginalConfig'
p1
ccopy_reg
_reconstructor
p2
(cWMCore.Configuration
Configuration
p3
c__builtin__
object
p4
Ntp5
Rp6
(dp7
S'Site'
p8
g2
(cWMCore.Configuration
ConfigSection
p9
g4
Ntp10
Rp11
(dp12
S'_internal_skipChecks'
p13
I00
sS'_internal_documentation'
p14
S''
p15
sS'_internal_settings'
p16
c__builtin__
set
p17
((lp18
S'blacklist'
p19
aS'storageSite'
p20
atp21
Rp22
sS'_internal_name'
p23
g8
sS'_internal_docstrings'
p24
(dp25
sg19
(lp26
S'T2_US_Caltech'
p27
asS'_internal_children'
p28
g17
((lp29
tp30
Rp31
sg20
S'T2_IT_Rome'
p32
sS'_internal_parent_ref'
p33
NsbsS'_internal_sections'
p34
(lp35
S'General'
p36
aS'JobType'
p37
aS'Data'
p38
ag8
aS'User'
p39
aS'Debug'
p40
asg39
g2
(g9
g4
Ntp41
Rp42
(dp43
g13
I00
sg14
g15
sg16
g17
((lp44
tp45
Rp46
sg23
g39
sg24
(dp47
sg28
g17
((lp48
tp49
Rp50
sg33
Nsbsg40
g2
(g9
g4
Ntp51
Rp52
(dp53
S'extraJDL'
p54
(lp55
S'+CMS_ALLOW_OVERFLOW=False'
p56
asg13
I00
sg14
g15
sg16
g17
((lp57
g54
atp58
Rp59
sg23
g40
sg24
(dp60
sg28
g17
((lp61
tp62
Rp63
sg33
Nsbsg36
g2
(g9
g4
Ntp64
Rp65
(dp66
S'workArea'
p67
S'BParkingNANO_loose_2022Jan13'
p68
sg13
I00
sg14
g15
sg16
g17
((lp69
g67
aS'transferOutputs'
p70
aS'transferLogs'
p71
aS'requestName'
p72
atp73
Rp74
sg23
g36
sg24
(dp75
sg70
I01
sg28
g17
((lp76
tp77
Rp78
sg72
S'data_Run2018D_part1'
p79
sg33
Nsg71
I01
sbsg38
g2
(g9
g4
Ntp80
Rp81
(dp82
S'inputDataset'
p83
S'/ParkingBPH1/Run2018D-05May2019promptD-v1/MINIAOD'
p84
sg13
I00
sS'splitting'
p85
S'LumiBased'
p86
sS'unitsPerJob'
p87
I11
sg14
g15
sg16
g17
((lp88
g83
aS'publication'
p89
ag87
ag85
aS'inputDBS'
p90
aS'lumiMask'
p91
aS'outLFNDirBase'
p92
atp93
Rp94
sg23
g38
sg90
S'global'
p95
sg24
(dp96
sg28
g17
((lp97
tp98
Rp99
sg92
S'/store/user/ratramon/HNLGen_ntuples/'
p100
sg33
Nsg91
S'https://cms-service-dqmdc.web.cern.ch/CAF/certification/Collisions18/13TeV/ReReco/Cert_314472-325175_13TeV_17SeptEarlyReReco2018ABC_PromptEraD_Collisions18_JSON.txt'
p101
sg89
I00
sbsg37
g2
(g9
g4
Ntp102
Rp103
(dp104
S'inputFiles'
p105
(lp106
S'../test/lowPtEleReg_2018_02062020_nv.db'
p107
asg13
I00
sS'pyCfgParams'
p108
(lp109
S'isMC=False'
p110
aS'reportEvery=1000'
p111
aS'tag=2022Jan13'
p112
aS'globalTag=102X_dataRun2_Prompt_v14'
p113
asg14
g15
sg16
g17
((lp114
g105
ag108
aS'pluginName'
p115
aS'outputFiles'
p116
aS'allowUndistributedCMSSW'
p117
aS'psetName'
p118
aS'maxJobRuntimeMin'
p119
atp120
Rp121
sg23
g37
sg24
(dp122
sg115
S'Analysis'
p123
sg116
(lp124
S'BParkNANO_data_2022Jan13.root'
p125
asg28
g17
((lp126
tp127
Rp128
sg117
I01
sg118
S'../test/run_nano_HNLToL_cfg.py'
p129
sg33
Nsg119
I3000
sbsbsS'voGroup'
p130
g15
sS'Server'
p131
S'cmsweb.cern.ch'
p132
sS'instance'
p133
S'prod'
p134
sS'RequestName'
p135
V220113_100816:ratramon_crab_data_Run2018D_part1
p136
sS'voRole'
p137
S'NULL'
p138
sS'Port'
p139
g15
s.