(dp1
S'OriginalConfig'
p2
ccopy_reg
_reconstructor
p3
(cWMCore.Configuration
Configuration
p4
c__builtin__
object
p5
NtRp6
(dp7
S'Site'
p8
g3
(cWMCore.Configuration
ConfigSection
p9
g5
NtRp10
(dp11
S'_internal_skipChecks'
p12
I00
sS'_internal_documentation'
p13
S''
sS'_internal_settings'
p14
c__builtin__
set
p15
((lp16
S'whitelist'
p17
aS'storageSite'
p18
atRp19
sS'_internal_name'
p20
g8
sS'_internal_docstrings'
p21
(dp22
sS'_internal_children'
p23
g15
((ltRp24
sg18
S'T2_IT_Rome'
p25
sS'_internal_parent_ref'
p26
Nsg17
(lp27
g25
asbsS'_internal_sections'
p28
(lp29
S'General'
p30
aS'JobType'
p31
aS'Data'
p32
ag8
aS'User'
p33
aS'Debug'
p34
asg30
g3
(g9
g5
NtRp35
(dp36
S'transferLogs'
p37
I01
sg12
I00
sg13
S''
sg14
g15
((lp38
g37
aS'transferOutputs'
p39
aS'workArea'
p40
aS'requestName'
p41
atRp42
sg20
g30
sg21
(dp43
sg39
I01
sg23
g15
((ltRp44
sg41
S'privateHNL_nano_Unresolved_Mass3_2021Aug29'
p45
sg26
Nsg40
S'crab_privateMCnano_Unresolved_Mass3'
p46
sbsS'_internal_webapps'
p47
(lp48
sg33
g3
(g9
g5
NtRp49
(dp50
g12
I00
sg13
S''
sg14
g15
((ltRp51
sg20
g33
sg21
(dp52
sg23
g15
((ltRp53
sg26
NsbsS'_internal_components'
p54
(lp55
sg34
g3
(g9
g5
NtRp56
(dp57
g12
I00
sg13
S''
sg14
g15
((ltRp58
sg20
g34
sg21
(dp59
sg23
g15
((ltRp60
sg26
Nsbsg32
g3
(g9
g5
NtRp61
(dp62
S'outputDatasetTag'
p63
S'privateHNLnano_2021Aug29'
p64
sg12
I00
sS'unitsPerJob'
p65
I1
sg13
S''
sg14
g15
((lp66
g63
aS'publication'
p67
ag65
aS'userInputFiles'
p68
aS'splitting'
p69
aS'outLFNDirBase'
p70
aS'outputPrimaryDataset'
p71
atRp72
sg70
S'/store/user/ratramon/HNLGen_ntuples/'
p73
sg20
g32
sg69
S'FileBased'
p74
sg21
(dp75
sg23
g15
((ltRp76
sg71
S'private_BtoDMuN_NtoL_nano_Unresolved_Mass3'
p77
sg26
Nsg68
(lp78
S'root://cms-xrd-global.cern.ch///store/user/ratramon/HNLGen_ntuples/private_BToDMuN_HalfMu_Halfe_mass3p0_ctau184p0/step4_nj1.root\n'
p79
aS'root://cms-xrd-global.cern.ch///store/user/ratramon/HNLGen_ntuples/private_BToDMuN_HalfMu_Halfe_mass3p0_ctau184p0/step4_nj10.root\n'
p80
aS'root://cms-xrd-global.cern.ch///store/user/ratramon/HNLGen_ntuples/private_BToDMuN_HalfMu_Halfe_mass3p0_ctau184p0/step4_nj100.root\n'
p81
aS'root://cms-xrd-global.cern.ch///store/user/ratramon/HNLGen_ntuples/private_BToDMuN_HalfMu_Halfe_mass3p0_ctau184p0/step4_nj1000.root\n'
p82
aS'root://cms-xrd-global.cern.ch///store/user/ratramon/HNLGen_ntuples/private_BToDMuN_HalfMu_Halfe_mass3p0_ctau184p0/step4_nj1001.root\n'
p83
aS'root://cms-xrd-global.cern.ch///store/user/ratramon/HNLGen_ntuples/private_BToDMuN_HalfMu_Halfe_mass3p0_ctau184p0/step4_nj1002.root\n'
p84
aS'root://cms-xrd-global.cern.ch///store/user/ratramon/HNLGen_ntuples/private_BToDMuN_HalfMu_Halfe_mass3p0_ctau184p0/step4_nj1003.root\n'
p85
aS'root://cms-xrd-global.cern.ch///store/user/ratramon/HNLGen_ntuples/private_BToDMuN_HalfMu_Halfe_mass3p0_ctau184p0/step4_nj1004.root\n'
p86
aS'root://cms-xrd-global.cern.ch///store/user/ratramon/HNLGen_ntuples/private_BToDMuN_HalfMu_Halfe_mass3p0_ctau184p0/step4_nj1005.root\n'
p87
aS'root://cms-xrd-global.cern.ch///store/user/ratramon/HNLGen_ntuples/private_BToDMuN_HalfMu_Halfe_mass3p0_ctau184p0/step4_nj1006.root\n'
p88
aS'root://cms-xrd-global.cern.ch///store/user/ratramon/HNLGen_ntuples/private_BToDMuN_HalfMu_Halfe_mass3p0_ctau184p0/step4_nj1007.root\n'
p89
aS'root://cms-xrd-global.cern.ch///store/user/ratramon/HNLGen_ntuples/private_BToDMuN_HalfMu_Halfe_mass3p0_ctau184p0/step4_nj1008.root\n'
p90
aS'root://cms-xrd-global.cern.ch///store/user/ratramon/HNLGen_ntuples/private_BToDMuN_HalfMu_Halfe_mass3p0_ctau184p0/step4_nj1009.root\n'
p91
aS'root://cms-xrd-global.cern.ch///store/user/ratramon/HNLGen_ntuples/private_BToDMuN_HalfMu_Halfe_mass3p0_ctau184p0/step4_nj101.root\n'
p92
aS'root://cms-xrd-global.cern.ch///store/user/ratramon/HNLGen_ntuples/private_BToDMuN_HalfMu_Halfe_mass3p0_ctau184p0/step4_nj1010.root\n'
p93
aS'root://cms-xrd-global.cern.ch///store/user/ratramon/HNLGen_ntuples/private_BToDMuN_HalfMu_Halfe_mass3p0_ctau184p0/step4_nj1011.root\n'
p94
aS'root://cms-xrd-global.cern.ch///store/user/ratramon/HNLGen_ntuples/private_BToDMuN_HalfMu_Halfe_mass3p0_ctau184p0/step4_nj1012.root\n'
p95
aS'root://cms-xrd-global.cern.ch///store/user/ratramon/HNLGen_ntuples/private_BToDMuN_HalfMu_Halfe_mass3p0_ctau184p0/step4_nj1013.root\n'
p96
aS'root://cms-xrd-global.cern.ch///store/user/ratramon/HNLGen_ntuples/private_BToDMuN_HalfMu_Halfe_mass3p0_ctau184p0/step4_nj1014.root\n'
p97
aS'root://cms-xrd-global.cern.ch///store/user/ratramon/HNLGen_ntuples/private_BToDMuN_HalfMu_Halfe_mass3p0_ctau184p0/step4_nj1015.root\n'
p98
aS'root://cms-xrd-global.cern.ch///store/user/ratramon/HNLGen_ntuples/private_BToDMuN_HalfMu_Halfe_mass3p0_ctau184p0/step4_nj1016.root\n'
p99
aS'root://cms-xrd-global.cern.ch///store/user/ratramon/HNLGen_ntuples/private_BToDMuN_HalfMu_Halfe_mass3p0_ctau184p0/step4_nj1017.root\n'
p100
aS'root://cms-xrd-global.cern.ch///store/user/ratramon/HNLGen_ntuples/private_BToDMuN_HalfMu_Halfe_mass3p0_ctau184p0/step4_nj1018.root\n'
p101
aS'root://cms-xrd-global.cern.ch///store/user/ratramon/HNLGen_ntuples/private_BToDMuN_HalfMu_Halfe_mass3p0_ctau184p0/step4_nj1019.root\n'
p102
aS'root://cms-xrd-global.cern.ch///store/user/ratramon/HNLGen_ntuples/private_BToDMuN_HalfMu_Halfe_mass3p0_ctau184p0/step4_nj102.root\n'
p103
aS'root://cms-xrd-global.cern.ch///store/user/ratramon/HNLGen_ntuples/private_BToDMuN_HalfMu_Halfe_mass3p0_ctau184p0/step4_nj1020.root\n'
p104
aS'root://cms-xrd-global.cern.ch///store/user/ratramon/HNLGen_ntuples/private_BToDMuN_HalfMu_Halfe_mass3p0_ctau184p0/step4_nj1021.root\n'
p105
aS'root://cms-xrd-global.cern.ch///store/user/ratramon/HNLGen_ntuples/private_BToDMuN_HalfMu_Halfe_mass3p0_ctau184p0/step4_nj1022.root\n'
p106
aS'root://cms-xrd-global.cern.ch///store/user/ratramon/HNLGen_ntuples/private_BToDMuN_HalfMu_Halfe_mass3p0_ctau184p0/step4_nj1023.root\n'
p107
aS'root://cms-xrd-global.cern.ch///store/user/ratramon/HNLGen_ntuples/private_BToDMuN_HalfMu_Halfe_mass3p0_ctau184p0/step4_nj1024.root\n'
p108
aS'root://cms-xrd-global.cern.ch///store/user/ratramon/HNLGen_ntuples/private_BToDMuN_HalfMu_Halfe_mass3p0_ctau184p0/step4_nj1025.root\n'
p109
aS'root://cms-xrd-global.cern.ch///store/user/ratramon/HNLGen_ntuples/private_BToDMuN_HalfMu_Halfe_mass3p0_ctau184p0/step4_nj1026.root\n'
p110
aS'root://cms-xrd-global.cern.ch///store/user/ratramon/HNLGen_ntuples/private_BToDMuN_HalfMu_Halfe_mass3p0_ctau184p0/step4_nj1027.root\n'
p111
aS'root://cms-xrd-global.cern.ch///store/user/ratramon/HNLGen_ntuples/private_BToDMuN_HalfMu_Halfe_mass3p0_ctau184p0/step4_nj1028.root\n'
p112
aS'root://cms-xrd-global.cern.ch///store/user/ratramon/HNLGen_ntuples/private_BToDMuN_HalfMu_Halfe_mass3p0_ctau184p0/step4_nj1029.root\n'
p113
aS'root://cms-xrd-global.cern.ch///store/user/ratramon/HNLGen_ntuples/private_BToDMuN_HalfMu_Halfe_mass3p0_ctau184p0/step4_nj103.root\n'
p114
aS'root://cms-xrd-global.cern.ch///store/user/ratramon/HNLGen_ntuples/private_BToDMuN_HalfMu_Halfe_mass3p0_ctau184p0/step4_nj1030.root\n'
p115
aS'root://cms-xrd-global.cern.ch///store/user/ratramon/HNLGen_ntuples/private_BToDMuN_HalfMu_Halfe_mass3p0_ctau184p0/step4_nj1031.root\n'
p116
aS'root://cms-xrd-global.cern.ch///store/user/ratramon/HNLGen_ntuples/private_BToDMuN_HalfMu_Halfe_mass3p0_ctau184p0/step4_nj1032.root\n'
p117
aS'root://cms-xrd-global.cern.ch///store/user/ratramon/HNLGen_ntuples/private_BToDMuN_HalfMu_Halfe_mass3p0_ctau184p0/step4_nj1033.root\n'
p118
aS'root://cms-xrd-global.cern.ch///store/user/ratramon/HNLGen_ntuples/private_BToDMuN_HalfMu_Halfe_mass3p0_ctau184p0/step4_nj1034.root\n'
p119
aS'root://cms-xrd-global.cern.ch///store/user/ratramon/HNLGen_ntuples/private_BToDMuN_HalfMu_Halfe_mass3p0_ctau184p0/step4_nj1035.root\n'
p120
aS'root://cms-xrd-global.cern.ch///store/user/ratramon/HNLGen_ntuples/private_BToDMuN_HalfMu_Halfe_mass3p0_ctau184p0/step4_nj1036.root\n'
p121
aS'root://cms-xrd-global.cern.ch///store/user/ratramon/HNLGen_ntuples/private_BToDMuN_HalfMu_Halfe_mass3p0_ctau184p0/step4_nj1037.root\n'
p122
aS'root://cms-xrd-global.cern.ch///store/user/ratramon/HNLGen_ntuples/private_BToDMuN_HalfMu_Halfe_mass3p0_ctau184p0/step4_nj1038.root\n'
p123
aS'root://cms-xrd-global.cern.ch///store/user/ratramon/HNLGen_ntuples/private_BToDMuN_HalfMu_Halfe_mass3p0_ctau184p0/step4_nj1039.root\n'
p124
aS'root://cms-xrd-global.cern.ch///store/user/ratramon/HNLGen_ntuples/private_BToDMuN_HalfMu_Halfe_mass3p0_ctau184p0/step4_nj104.root\n'
p125
aS'root://cms-xrd-global.cern.ch///store/user/ratramon/HNLGen_ntuples/private_BToDMuN_HalfMu_Halfe_mass3p0_ctau184p0/step4_nj1040.root\n'
p126
aS'root://cms-xrd-global.cern.ch///store/user/ratramon/HNLGen_ntuples/private_BToDMuN_HalfMu_Halfe_mass3p0_ctau184p0/step4_nj1041.root\n'
p127
aS'root://cms-xrd-global.cern.ch///store/user/ratramon/HNLGen_ntuples/private_BToDMuN_HalfMu_Halfe_mass3p0_ctau184p0/step4_nj1042.root\n'
p128
aS'root://cms-xrd-global.cern.ch///store/user/ratramon/HNLGen_ntuples/private_BToDMuN_HalfMu_Halfe_mass3p0_ctau184p0/step4_nj1043.root\n'
p129
aS'root://cms-xrd-global.cern.ch///store/user/ratramon/HNLGen_ntuples/private_BToDMuN_HalfMu_Halfe_mass3p0_ctau184p0/step4_nj1044.root\n'
p130
aS'root://cms-xrd-global.cern.ch///store/user/ratramon/HNLGen_ntuples/private_BToDMuN_HalfMu_Halfe_mass3p0_ctau184p0/step4_nj1045.root\n'
p131
aS'root://cms-xrd-global.cern.ch///store/user/ratramon/HNLGen_ntuples/private_BToDMuN_HalfMu_Halfe_mass3p0_ctau184p0/step4_nj1046.root\n'
p132
aS'root://cms-xrd-global.cern.ch///store/user/ratramon/HNLGen_ntuples/private_BToDMuN_HalfMu_Halfe_mass3p0_ctau184p0/step4_nj1047.root\n'
p133
aS'root://cms-xrd-global.cern.ch///store/user/ratramon/HNLGen_ntuples/private_BToDMuN_HalfMu_Halfe_mass3p0_ctau184p0/step4_nj1048.root\n'
p134
aS'root://cms-xrd-global.cern.ch///store/user/ratramon/HNLGen_ntuples/private_BToDMuN_HalfMu_Halfe_mass3p0_ctau184p0/step4_nj1049.root\n'
p135
aS'root://cms-xrd-global.cern.ch///store/user/ratramon/HNLGen_ntuples/private_BToDMuN_HalfMu_Halfe_mass3p0_ctau184p0/step4_nj105.root\n'
p136
aS'root://cms-xrd-global.cern.ch///store/user/ratramon/HNLGen_ntuples/private_BToDMuN_HalfMu_Halfe_mass3p0_ctau184p0/step4_nj1050.root\n'
p137
aS'root://cms-xrd-global.cern.ch///store/user/ratramon/HNLGen_ntuples/private_BToDMuN_HalfMu_Halfe_mass3p0_ctau184p0/step4_nj1051.root\n'
p138
aS'root://cms-xrd-global.cern.ch///store/user/ratramon/HNLGen_ntuples/private_BToDMuN_HalfMu_Halfe_mass3p0_ctau184p0/step4_nj1052.root\n'
p139
aS'root://cms-xrd-global.cern.ch///store/user/ratramon/HNLGen_ntuples/private_BToDMuN_HalfMu_Halfe_mass3p0_ctau184p0/step4_nj1053.root\n'
p140
aS'root://cms-xrd-global.cern.ch///store/user/ratramon/HNLGen_ntuples/private_BToDMuN_HalfMu_Halfe_mass3p0_ctau184p0/step4_nj1054.root\n'
p141
aS'root://cms-xrd-global.cern.ch///store/user/ratramon/HNLGen_ntuples/private_BToDMuN_HalfMu_Halfe_mass3p0_ctau184p0/step4_nj1055.root\n'
p142
aS'root://cms-xrd-global.cern.ch///store/user/ratramon/HNLGen_ntuples/private_BToDMuN_HalfMu_Halfe_mass3p0_ctau184p0/step4_nj1056.root\n'
p143
aS'root://cms-xrd-global.cern.ch///store/user/ratramon/HNLGen_ntuples/private_BToDMuN_HalfMu_Halfe_mass3p0_ctau184p0/step4_nj1057.root\n'
p144
aS'root://cms-xrd-global.cern.ch///store/user/ratramon/HNLGen_ntuples/private_BToDMuN_HalfMu_Halfe_mass3p0_ctau184p0/step4_nj1058.root\n'
p145
aS'root://cms-xrd-global.cern.ch///store/user/ratramon/HNLGen_ntuples/private_BToDMuN_HalfMu_Halfe_mass3p0_ctau184p0/step4_nj1059.root\n'
p146
aS'root://cms-xrd-global.cern.ch///store/user/ratramon/HNLGen_ntuples/private_BToDMuN_HalfMu_Halfe_mass3p0_ctau184p0/step4_nj106.root\n'
p147
aS'root://cms-xrd-global.cern.ch///store/user/ratramon/HNLGen_ntuples/private_BToDMuN_HalfMu_Halfe_mass3p0_ctau184p0/step4_nj1060.root\n'
p148
aS'root://cms-xrd-global.cern.ch///store/user/ratramon/HNLGen_ntuples/private_BToDMuN_HalfMu_Halfe_mass3p0_ctau184p0/step4_nj1061.root\n'
p149
aS'root://cms-xrd-global.cern.ch///store/user/ratramon/HNLGen_ntuples/private_BToDMuN_HalfMu_Halfe_mass3p0_ctau184p0/step4_nj1062.root\n'
p150
aS'root://cms-xrd-global.cern.ch///store/user/ratramon/HNLGen_ntuples/private_BToDMuN_HalfMu_Halfe_mass3p0_ctau184p0/step4_nj1063.root\n'
p151
aS'root://cms-xrd-global.cern.ch///store/user/ratramon/HNLGen_ntuples/private_BToDMuN_HalfMu_Halfe_mass3p0_ctau184p0/step4_nj1065.root\n'
p152
aS'root://cms-xrd-global.cern.ch///store/user/ratramon/HNLGen_ntuples/private_BToDMuN_HalfMu_Halfe_mass3p0_ctau184p0/step4_nj1066.root\n'
p153
aS'root://cms-xrd-global.cern.ch///store/user/ratramon/HNLGen_ntuples/private_BToDMuN_HalfMu_Halfe_mass3p0_ctau184p0/step4_nj1067.root\n'
p154
aS'root://cms-xrd-global.cern.ch///store/user/ratramon/HNLGen_ntuples/private_BToDMuN_HalfMu_Halfe_mass3p0_ctau184p0/step4_nj1068.root\n'
p155
aS'root://cms-xrd-global.cern.ch///store/user/ratramon/HNLGen_ntuples/private_BToDMuN_HalfMu_Halfe_mass3p0_ctau184p0/step4_nj1069.root\n'
p156
aS'root://cms-xrd-global.cern.ch///store/user/ratramon/HNLGen_ntuples/private_BToDMuN_HalfMu_Halfe_mass3p0_ctau184p0/step4_nj107.root\n'
p157
aS'root://cms-xrd-global.cern.ch///store/user/ratramon/HNLGen_ntuples/private_BToDMuN_HalfMu_Halfe_mass3p0_ctau184p0/step4_nj1070.root\n'
p158
aS'root://cms-xrd-global.cern.ch///store/user/ratramon/HNLGen_ntuples/private_BToDMuN_HalfMu_Halfe_mass3p0_ctau184p0/step4_nj1071.root\n'
p159
aS'root://cms-xrd-global.cern.ch///store/user/ratramon/HNLGen_ntuples/private_BToDMuN_HalfMu_Halfe_mass3p0_ctau184p0/step4_nj1072.root\n'
p160
aS'root://cms-xrd-global.cern.ch///store/user/ratramon/HNLGen_ntuples/private_BToDMuN_HalfMu_Halfe_mass3p0_ctau184p0/step4_nj1073.root\n'
p161
aS'root://cms-xrd-global.cern.ch///store/user/ratramon/HNLGen_ntuples/private_BToDMuN_HalfMu_Halfe_mass3p0_ctau184p0/step4_nj1074.root\n'
p162
aS'root://cms-xrd-global.cern.ch///store/user/ratramon/HNLGen_ntuples/private_BToDMuN_HalfMu_Halfe_mass3p0_ctau184p0/step4_nj1075.root\n'
p163
aS'root://cms-xrd-global.cern.ch///store/user/ratramon/HNLGen_ntuples/private_BToDMuN_HalfMu_Halfe_mass3p0_ctau184p0/step4_nj1076.root\n'
p164
aS'root://cms-xrd-global.cern.ch///store/user/ratramon/HNLGen_ntuples/private_BToDMuN_HalfMu_Halfe_mass3p0_ctau184p0/step4_nj1077.root\n'
p165
aS'root://cms-xrd-global.cern.ch///store/user/ratramon/HNLGen_ntuples/private_BToDMuN_HalfMu_Halfe_mass3p0_ctau184p0/step4_nj1078.root\n'
p166
aS'root://cms-xrd-global.cern.ch///store/user/ratramon/HNLGen_ntuples/private_BToDMuN_HalfMu_Halfe_mass3p0_ctau184p0/step4_nj1079.root\n'
p167
aS'root://cms-xrd-global.cern.ch///store/user/ratramon/HNLGen_ntuples/private_BToDMuN_HalfMu_Halfe_mass3p0_ctau184p0/step4_nj108.root\n'
p168
aS'root://cms-xrd-global.cern.ch///store/user/ratramon/HNLGen_ntuples/private_BToDMuN_HalfMu_Halfe_mass3p0_ctau184p0/step4_nj1080.root\n'
p169
aS'root://cms-xrd-global.cern.ch///store/user/ratramon/HNLGen_ntuples/private_BToDMuN_HalfMu_Halfe_mass3p0_ctau184p0/step4_nj1081.root\n'
p170
aS'root://cms-xrd-global.cern.ch///store/user/ratramon/HNLGen_ntuples/private_BToDMuN_HalfMu_Halfe_mass3p0_ctau184p0/step4_nj1082.root\n'
p171
aS'root://cms-xrd-global.cern.ch///store/user/ratramon/HNLGen_ntuples/private_BToDMuN_HalfMu_Halfe_mass3p0_ctau184p0/step4_nj1083.root\n'
p172
aS'root://cms-xrd-global.cern.ch///store/user/ratramon/HNLGen_ntuples/private_BToDMuN_HalfMu_Halfe_mass3p0_ctau184p0/step4_nj1084.root\n'
p173
aS'root://cms-xrd-global.cern.ch///store/user/ratramon/HNLGen_ntuples/private_BToDMuN_HalfMu_Halfe_mass3p0_ctau184p0/step4_nj1085.root\n'
p174
aS'root://cms-xrd-global.cern.ch///store/user/ratramon/HNLGen_ntuples/private_BToDMuN_HalfMu_Halfe_mass3p0_ctau184p0/step4_nj1086.root\n'
p175
aS'root://cms-xrd-global.cern.ch///store/user/ratramon/HNLGen_ntuples/private_BToDMuN_HalfMu_Halfe_mass3p0_ctau184p0/step4_nj1087.root\n'
p176
aS'root://cms-xrd-global.cern.ch///store/user/ratramon/HNLGen_ntuples/private_BToDMuN_HalfMu_Halfe_mass3p0_ctau184p0/step4_nj1088.root\n'
p177
aS'root://cms-xrd-global.cern.ch///store/user/ratramon/HNLGen_ntuples/private_BToDMuN_HalfMu_Halfe_mass3p0_ctau184p0/step4_nj1089.root\n'
p178
aS'root://cms-xrd-global.cern.ch///store/user/ratramon/HNLGen_ntuples/private_BToDMuN_HalfMu_Halfe_mass3p0_ctau184p0/step4_nj109.root\n'
p179
aS'root://cms-xrd-global.cern.ch///store/user/ratramon/HNLGen_ntuples/private_BToDMuN_HalfMu_Halfe_mass3p0_ctau184p0/step4_nj1090.root\n'
p180
aS'root://cms-xrd-global.cern.ch///store/user/ratramon/HNLGen_ntuples/private_BToDMuN_HalfMu_Halfe_mass3p0_ctau184p0/step4_nj1091.root\n'
p181
aS'root://cms-xrd-global.cern.ch///store/user/ratramon/HNLGen_ntuples/private_BToDMuN_HalfMu_Halfe_mass3p0_ctau184p0/step4_nj1092.root\n'
p182
aS'root://cms-xrd-global.cern.ch///store/user/ratramon/HNLGen_ntuples/private_BToDMuN_HalfMu_Halfe_mass3p0_ctau184p0/step4_nj1093.root\n'
p183
aS'root://cms-xrd-global.cern.ch///store/user/ratramon/HNLGen_ntuples/private_BToDMuN_HalfMu_Halfe_mass3p0_ctau184p0/step4_nj1094.root\n'
p184
aS'root://cms-xrd-global.cern.ch///store/user/ratramon/HNLGen_ntuples/private_BToDMuN_HalfMu_Halfe_mass3p0_ctau184p0/step4_nj1095.root\n'
p185
aS'root://cms-xrd-global.cern.ch///store/user/ratramon/HNLGen_ntuples/private_BToDMuN_HalfMu_Halfe_mass3p0_ctau184p0/step4_nj1096.root\n'
p186
aS'root://cms-xrd-global.cern.ch///store/user/ratramon/HNLGen_ntuples/private_BToDMuN_HalfMu_Halfe_mass3p0_ctau184p0/step4_nj1097.root\n'
p187
aS'root://cms-xrd-global.cern.ch///store/user/ratramon/HNLGen_ntuples/private_BToDMuN_HalfMu_Halfe_mass3p0_ctau184p0/step4_nj1098.root\n'
p188
aS'root://cms-xrd-global.cern.ch///store/user/ratramon/HNLGen_ntuples/private_BToDMuN_HalfMu_Halfe_mass3p0_ctau184p0/step4_nj1099.root\n'
p189
aS'root://cms-xrd-global.cern.ch///store/user/ratramon/HNLGen_ntuples/private_BToDMuN_HalfMu_Halfe_mass3p0_ctau184p0/step4_nj11.root\n'
p190
aS'root://cms-xrd-global.cern.ch///store/user/ratramon/HNLGen_ntuples/private_BToDMuN_HalfMu_Halfe_mass3p0_ctau184p0/step4_nj110.root\n'
p191
aS'root://cms-xrd-global.cern.ch///store/user/ratramon/HNLGen_ntuples/private_BToDMuN_HalfMu_Halfe_mass3p0_ctau184p0/step4_nj1100.root\n'
p192
aS'root://cms-xrd-global.cern.ch///store/user/ratramon/HNLGen_ntuples/private_BToDMuN_HalfMu_Halfe_mass3p0_ctau184p0/step4_nj1101.root\n'
p193
aS'root://cms-xrd-global.cern.ch///store/user/ratramon/HNLGen_ntuples/private_BToDMuN_HalfMu_Halfe_mass3p0_ctau184p0/step4_nj1102.root\n'
p194
aS'root://cms-xrd-global.cern.ch///store/user/ratramon/HNLGen_ntuples/private_BToDMuN_HalfMu_Halfe_mass3p0_ctau184p0/step4_nj1103.root\n'
p195
aS'root://cms-xrd-global.cern.ch///store/user/ratramon/HNLGen_ntuples/private_BToDMuN_HalfMu_Halfe_mass3p0_ctau184p0/step4_nj1104.root\n'
p196
aS'root://cms-xrd-global.cern.ch///store/user/ratramon/HNLGen_ntuples/private_BToDMuN_HalfMu_Halfe_mass3p0_ctau184p0/step4_nj1105.root\n'
p197
aS'root://cms-xrd-global.cern.ch///store/user/ratramon/HNLGen_ntuples/private_BToDMuN_HalfMu_Halfe_mass3p0_ctau184p0/step4_nj1106.root\n'
p198
aS'root://cms-xrd-global.cern.ch///store/user/ratramon/HNLGen_ntuples/private_BToDMuN_HalfMu_Halfe_mass3p0_ctau184p0/step4_nj1107.root\n'
p199
aS'root://cms-xrd-global.cern.ch///store/user/ratramon/HNLGen_ntuples/private_BToDMuN_HalfMu_Halfe_mass3p0_ctau184p0/step4_nj1108.root\n'
p200
aS'root://cms-xrd-global.cern.ch///store/user/ratramon/HNLGen_ntuples/private_BToDMuN_HalfMu_Halfe_mass3p0_ctau184p0/step4_nj1109.root\n'
p201
aS'root://cms-xrd-global.cern.ch///store/user/ratramon/HNLGen_ntuples/private_BToDMuN_HalfMu_Halfe_mass3p0_ctau184p0/step4_nj111.root\n'
p202
aS'root://cms-xrd-global.cern.ch///store/user/ratramon/HNLGen_ntuples/private_BToDMuN_HalfMu_Halfe_mass3p0_ctau184p0/step4_nj1110.root\n'
p203
aS'root://cms-xrd-global.cern.ch///store/user/ratramon/HNLGen_ntuples/private_BToDMuN_HalfMu_Halfe_mass3p0_ctau184p0/step4_nj1111.root\n'
p204
aS'root://cms-xrd-global.cern.ch///store/user/ratramon/HNLGen_ntuples/private_BToDMuN_HalfMu_Halfe_mass3p0_ctau184p0/step4_nj1112.root\n'
p205
aS'root://cms-xrd-global.cern.ch///store/user/ratramon/HNLGen_ntuples/private_BToDMuN_HalfMu_Halfe_mass3p0_ctau184p0/step4_nj1113.root\n'
p206
aS'root://cms-xrd-global.cern.ch///store/user/ratramon/HNLGen_ntuples/private_BToDMuN_HalfMu_Halfe_mass3p0_ctau184p0/step4_nj1114.root\n'
p207
aS'root://cms-xrd-global.cern.ch///store/user/ratramon/HNLGen_ntuples/private_BToDMuN_HalfMu_Halfe_mass3p0_ctau184p0/step4_nj1115.root\n'
p208
aS'root://cms-xrd-global.cern.ch///store/user/ratramon/HNLGen_ntuples/private_BToDMuN_HalfMu_Halfe_mass3p0_ctau184p0/step4_nj1116.root\n'
p209
aS'root://cms-xrd-global.cern.ch///store/user/ratramon/HNLGen_ntuples/private_BToDMuN_HalfMu_Halfe_mass3p0_ctau184p0/step4_nj1117.root\n'
p210
aS'root://cms-xrd-global.cern.ch///store/user/ratramon/HNLGen_ntuples/private_BToDMuN_HalfMu_Halfe_mass3p0_ctau184p0/step4_nj1118.root\n'
p211
aS'root://cms-xrd-global.cern.ch///store/user/ratramon/HNLGen_ntuples/private_BToDMuN_HalfMu_Halfe_mass3p0_ctau184p0/step4_nj1119.root\n'
p212
aS'root://cms-xrd-global.cern.ch///store/user/ratramon/HNLGen_ntuples/private_BToDMuN_HalfMu_Halfe_mass3p0_ctau184p0/step4_nj112.root\n'
p213
aS'root://cms-xrd-global.cern.ch///store/user/ratramon/HNLGen_ntuples/private_BToDMuN_HalfMu_Halfe_mass3p0_ctau184p0/step4_nj1120.root\n'
p214
aS'root://cms-xrd-global.cern.ch///store/user/ratramon/HNLGen_ntuples/private_BToDMuN_HalfMu_Halfe_mass3p0_ctau184p0/step4_nj1121.root\n'
p215
aS'root://cms-xrd-global.cern.ch///store/user/ratramon/HNLGen_ntuples/private_BToDMuN_HalfMu_Halfe_mass3p0_ctau184p0/step4_nj1122.root\n'
p216
aS'root://cms-xrd-global.cern.ch///store/user/ratramon/HNLGen_ntuples/private_BToDMuN_HalfMu_Halfe_mass3p0_ctau184p0/step4_nj1123.root\n'
p217
aS'root://cms-xrd-global.cern.ch///store/user/ratramon/HNLGen_ntuples/private_BToDMuN_HalfMu_Halfe_mass3p0_ctau184p0/step4_nj1124.root\n'
p218
aS'root://cms-xrd-global.cern.ch///store/user/ratramon/HNLGen_ntuples/private_BToDMuN_HalfMu_Halfe_mass3p0_ctau184p0/step4_nj1125.root\n'
p219
aS'root://cms-xrd-global.cern.ch///store/user/ratramon/HNLGen_ntuples/private_BToDMuN_HalfMu_Halfe_mass3p0_ctau184p0/step4_nj1126.root\n'
p220
aS'root://cms-xrd-global.cern.ch///store/user/ratramon/HNLGen_ntuples/private_BToDMuN_HalfMu_Halfe_mass3p0_ctau184p0/step4_nj1127.root\n'
p221
aS'root://cms-xrd-global.cern.ch///store/user/ratramon/HNLGen_ntuples/private_BToDMuN_HalfMu_Halfe_mass3p0_ctau184p0/step4_nj1128.root\n'
p222
aS'root://cms-xrd-global.cern.ch///store/user/ratramon/HNLGen_ntuples/private_BToDMuN_HalfMu_Halfe_mass3p0_ctau184p0/step4_nj1129.root\n'
p223
aS'root://cms-xrd-global.cern.ch///store/user/ratramon/HNLGen_ntuples/private_BToDMuN_HalfMu_Halfe_mass3p0_ctau184p0/step4_nj1130.root\n'
p224
aS'root://cms-xrd-global.cern.ch///store/user/ratramon/HNLGen_ntuples/private_BToDMuN_HalfMu_Halfe_mass3p0_ctau184p0/step4_nj1131.root\n'
p225
aS'root://cms-xrd-global.cern.ch///store/user/ratramon/HNLGen_ntuples/private_BToDMuN_HalfMu_Halfe_mass3p0_ctau184p0/step4_nj1132.root\n'
p226
aS'root://cms-xrd-global.cern.ch///store/user/ratramon/HNLGen_ntuples/private_BToDMuN_HalfMu_Halfe_mass3p0_ctau184p0/step4_nj1133.root\n'
p227
aS'root://cms-xrd-global.cern.ch///store/user/ratramon/HNLGen_ntuples/private_BToDMuN_HalfMu_Halfe_mass3p0_ctau184p0/step4_nj1134.root\n'
p228
aS'root://cms-xrd-global.cern.ch///store/user/ratramon/HNLGen_ntuples/private_BToDMuN_HalfMu_Halfe_mass3p0_ctau184p0/step4_nj1135.root\n'
p229
aS'root://cms-xrd-global.cern.ch///store/user/ratramon/HNLGen_ntuples/private_BToDMuN_HalfMu_Halfe_mass3p0_ctau184p0/step4_nj1136.root\n'
p230
aS'root://cms-xrd-global.cern.ch///store/user/ratramon/HNLGen_ntuples/private_BToDMuN_HalfMu_Halfe_mass3p0_ctau184p0/step4_nj1137.root\n'
p231
aS'root://cms-xrd-global.cern.ch///store/user/ratramon/HNLGen_ntuples/private_BToDMuN_HalfMu_Halfe_mass3p0_ctau184p0/step4_nj1138.root\n'
p232
aS'root://cms-xrd-global.cern.ch///store/user/ratramon/HNLGen_ntuples/private_BToDMuN_HalfMu_Halfe_mass3p0_ctau184p0/step4_nj1139.root\n'
p233
aS'root://cms-xrd-global.cern.ch///store/user/ratramon/HNLGen_ntuples/private_BToDMuN_HalfMu_Halfe_mass3p0_ctau184p0/step4_nj114.root\n'
p234
aS'root://cms-xrd-global.cern.ch///store/user/ratramon/HNLGen_ntuples/private_BToDMuN_HalfMu_Halfe_mass3p0_ctau184p0/step4_nj1140.root\n'
p235
aS'root://cms-xrd-global.cern.ch///store/user/ratramon/HNLGen_ntuples/private_BToDMuN_HalfMu_Halfe_mass3p0_ctau184p0/step4_nj1141.root\n'
p236
aS'root://cms-xrd-global.cern.ch///store/user/ratramon/HNLGen_ntuples/private_BToDMuN_HalfMu_Halfe_mass3p0_ctau184p0/step4_nj1143.root\n'
p237
aS'root://cms-xrd-global.cern.ch///store/user/ratramon/HNLGen_ntuples/private_BToDMuN_HalfMu_Halfe_mass3p0_ctau184p0/step4_nj1144.root\n'
p238
aS'root://cms-xrd-global.cern.ch///store/user/ratramon/HNLGen_ntuples/private_BToDMuN_HalfMu_Halfe_mass3p0_ctau184p0/step4_nj1145.root\n'
p239
aS'root://cms-xrd-global.cern.ch///store/user/ratramon/HNLGen_ntuples/private_BToDMuN_HalfMu_Halfe_mass3p0_ctau184p0/step4_nj1146.root\n'
p240
aS'root://cms-xrd-global.cern.ch///store/user/ratramon/HNLGen_ntuples/private_BToDMuN_HalfMu_Halfe_mass3p0_ctau184p0/step4_nj1147.root\n'
p241
aS'root://cms-xrd-global.cern.ch///store/user/ratramon/HNLGen_ntuples/private_BToDMuN_HalfMu_Halfe_mass3p0_ctau184p0/step4_nj1148.root\n'
p242
aS'root://cms-xrd-global.cern.ch///store/user/ratramon/HNLGen_ntuples/private_BToDMuN_HalfMu_Halfe_mass3p0_ctau184p0/step4_nj1149.root\n'
p243
aS'root://cms-xrd-global.cern.ch///store/user/ratramon/HNLGen_ntuples/private_BToDMuN_HalfMu_Halfe_mass3p0_ctau184p0/step4_nj115.root\n'
p244
aS'root://cms-xrd-global.cern.ch///store/user/ratramon/HNLGen_ntuples/private_BToDMuN_HalfMu_Halfe_mass3p0_ctau184p0/step4_nj1150.root\n'
p245
aS'root://cms-xrd-global.cern.ch///store/user/ratramon/HNLGen_ntuples/private_BToDMuN_HalfMu_Halfe_mass3p0_ctau184p0/step4_nj1151.root\n'
p246
aS'root://cms-xrd-global.cern.ch///store/user/ratramon/HNLGen_ntuples/private_BToDMuN_HalfMu_Halfe_mass3p0_ctau184p0/step4_nj1152.root\n'
p247
aS'root://cms-xrd-global.cern.ch///store/user/ratramon/HNLGen_ntuples/private_BToDMuN_HalfMu_Halfe_mass3p0_ctau184p0/step4_nj1153.root\n'
p248
aS'root://cms-xrd-global.cern.ch///store/user/ratramon/HNLGen_ntuples/private_BToDMuN_HalfMu_Halfe_mass3p0_ctau184p0/step4_nj1154.root\n'
p249
aS'root://cms-xrd-global.cern.ch///store/user/ratramon/HNLGen_ntuples/private_BToDMuN_HalfMu_Halfe_mass3p0_ctau184p0/step4_nj1155.root\n'
p250
aS'root://cms-xrd-global.cern.ch///store/user/ratramon/HNLGen_ntuples/private_BToDMuN_HalfMu_Halfe_mass3p0_ctau184p0/step4_nj1156.root\n'
p251
aS'root://cms-xrd-global.cern.ch///store/user/ratramon/HNLGen_ntuples/private_BToDMuN_HalfMu_Halfe_mass3p0_ctau184p0/step4_nj1157.root\n'
p252
aS'root://cms-xrd-global.cern.ch///store/user/ratramon/HNLGen_ntuples/private_BToDMuN_HalfMu_Halfe_mass3p0_ctau184p0/step4_nj1158.root\n'
p253
aS'root://cms-xrd-global.cern.ch///store/user/ratramon/HNLGen_ntuples/private_BToDMuN_HalfMu_Halfe_mass3p0_ctau184p0/step4_nj1159.root\n'
p254
aS'root://cms-xrd-global.cern.ch///store/user/ratramon/HNLGen_ntuples/private_BToDMuN_HalfMu_Halfe_mass3p0_ctau184p0/step4_nj116.root\n'
p255
aS'root://cms-xrd-global.cern.ch///store/user/ratramon/HNLGen_ntuples/private_BToDMuN_HalfMu_Halfe_mass3p0_ctau184p0/step4_nj1160.root\n'
p256
aS'root://cms-xrd-global.cern.ch///store/user/ratramon/HNLGen_ntuples/private_BToDMuN_HalfMu_Halfe_mass3p0_ctau184p0/step4_nj1161.root\n'
p257
aS'root://cms-xrd-global.cern.ch///store/user/ratramon/HNLGen_ntuples/private_BToDMuN_HalfMu_Halfe_mass3p0_ctau184p0/step4_nj1162.root\n'
p258
aS'root://cms-xrd-global.cern.ch///store/user/ratramon/HNLGen_ntuples/private_BToDMuN_HalfMu_Halfe_mass3p0_ctau184p0/step4_nj1163.root\n'
p259
aS'root://cms-xrd-global.cern.ch///store/user/ratramon/HNLGen_ntuples/private_BToDMuN_HalfMu_Halfe_mass3p0_ctau184p0/step4_nj1164.root\n'
p260
aS'root://cms-xrd-global.cern.ch///store/user/ratramon/HNLGen_ntuples/private_BToDMuN_HalfMu_Halfe_mass3p0_ctau184p0/step4_nj1165.root\n'
p261
aS'root://cms-xrd-global.cern.ch///store/user/ratramon/HNLGen_ntuples/private_BToDMuN_HalfMu_Halfe_mass3p0_ctau184p0/step4_nj1166.root\n'
p262
aS'root://cms-xrd-global.cern.ch///store/user/ratramon/HNLGen_ntuples/private_BToDMuN_HalfMu_Halfe_mass3p0_ctau184p0/step4_nj1167.root\n'
p263
aS'root://cms-xrd-global.cern.ch///store/user/ratramon/HNLGen_ntuples/private_BToDMuN_HalfMu_Halfe_mass3p0_ctau184p0/step4_nj1168.root\n'
p264
aS'root://cms-xrd-global.cern.ch///store/user/ratramon/HNLGen_ntuples/private_BToDMuN_HalfMu_Halfe_mass3p0_ctau184p0/step4_nj1169.root\n'
p265
aS'root://cms-xrd-global.cern.ch///store/user/ratramon/HNLGen_ntuples/private_BToDMuN_HalfMu_Halfe_mass3p0_ctau184p0/step4_nj117.root\n'
p266
aS'root://cms-xrd-global.cern.ch///store/user/ratramon/HNLGen_ntuples/private_BToDMuN_HalfMu_Halfe_mass3p0_ctau184p0/step4_nj1170.root\n'
p267
aS'root://cms-xrd-global.cern.ch///store/user/ratramon/HNLGen_ntuples/private_BToDMuN_HalfMu_Halfe_mass3p0_ctau184p0/step4_nj1171.root\n'
p268
aS'root://cms-xrd-global.cern.ch///store/user/ratramon/HNLGen_ntuples/private_BToDMuN_HalfMu_Halfe_mass3p0_ctau184p0/step4_nj1172.root\n'
p269
aS'root://cms-xrd-global.cern.ch///store/user/ratramon/HNLGen_ntuples/private_BToDMuN_HalfMu_Halfe_mass3p0_ctau184p0/step4_nj1173.root\n'
p270
aS'root://cms-xrd-global.cern.ch///store/user/ratramon/HNLGen_ntuples/private_BToDMuN_HalfMu_Halfe_mass3p0_ctau184p0/step4_nj1174.root\n'
p271
aS'root://cms-xrd-global.cern.ch///store/user/ratramon/HNLGen_ntuples/private_BToDMuN_HalfMu_Halfe_mass3p0_ctau184p0/step4_nj1175.root\n'
p272
aS'root://cms-xrd-global.cern.ch///store/user/ratramon/HNLGen_ntuples/private_BToDMuN_HalfMu_Halfe_mass3p0_ctau184p0/step4_nj1176.root\n'
p273
aS'root://cms-xrd-global.cern.ch///store/user/ratramon/HNLGen_ntuples/private_BToDMuN_HalfMu_Halfe_mass3p0_ctau184p0/step4_nj1177.root\n'
p274
aS'root://cms-xrd-global.cern.ch///store/user/ratramon/HNLGen_ntuples/private_BToDMuN_HalfMu_Halfe_mass3p0_ctau184p0/step4_nj1178.root\n'
p275
aS'root://cms-xrd-global.cern.ch///store/user/ratramon/HNLGen_ntuples/private_BToDMuN_HalfMu_Halfe_mass3p0_ctau184p0/step4_nj1179.root\n'
p276
aS'root://cms-xrd-global.cern.ch///store/user/ratramon/HNLGen_ntuples/private_BToDMuN_HalfMu_Halfe_mass3p0_ctau184p0/step4_nj118.root\n'
p277
aS'root://cms-xrd-global.cern.ch///store/user/ratramon/HNLGen_ntuples/private_BToDMuN_HalfMu_Halfe_mass3p0_ctau184p0/step4_nj1180.root\n'
p278
aS'root://cms-xrd-global.cern.ch///store/user/ratramon/HNLGen_ntuples/private_BToDMuN_HalfMu_Halfe_mass3p0_ctau184p0/step4_nj1181.root\n'
p279
aS'root://cms-xrd-global.cern.ch///store/user/ratramon/HNLGen_ntuples/private_BToDMuN_HalfMu_Halfe_mass3p0_ctau184p0/step4_nj1182.root\n'
p280
aS'root://cms-xrd-global.cern.ch///store/user/ratramon/HNLGen_ntuples/private_BToDMuN_HalfMu_Halfe_mass3p0_ctau184p0/step4_nj1183.root\n'
p281
aS'root://cms-xrd-global.cern.ch///store/user/ratramon/HNLGen_ntuples/private_BToDMuN_HalfMu_Halfe_mass3p0_ctau184p0/step4_nj1184.root\n'
p282
aS'root://cms-xrd-global.cern.ch///store/user/ratramon/HNLGen_ntuples/private_BToDMuN_HalfMu_Halfe_mass3p0_ctau184p0/step4_nj1185.root\n'
p283
aS'root://cms-xrd-global.cern.ch///store/user/ratramon/HNLGen_ntuples/private_BToDMuN_HalfMu_Halfe_mass3p0_ctau184p0/step4_nj1186.root\n'
p284
aS'root://cms-xrd-global.cern.ch///store/user/ratramon/HNLGen_ntuples/private_BToDMuN_HalfMu_Halfe_mass3p0_ctau184p0/step4_nj1187.root\n'
p285
aS'root://cms-xrd-global.cern.ch///store/user/ratramon/HNLGen_ntuples/private_BToDMuN_HalfMu_Halfe_mass3p0_ctau184p0/step4_nj1188.root\n'
p286
aS'root://cms-xrd-global.cern.ch///store/user/ratramon/HNLGen_ntuples/private_BToDMuN_HalfMu_Halfe_mass3p0_ctau184p0/step4_nj1189.root\n'
p287
aS'root://cms-xrd-global.cern.ch///store/user/ratramon/HNLGen_ntuples/private_BToDMuN_HalfMu_Halfe_mass3p0_ctau184p0/step4_nj119.root\n'
p288
aS'root://cms-xrd-global.cern.ch///store/user/ratramon/HNLGen_ntuples/private_BToDMuN_HalfMu_Halfe_mass3p0_ctau184p0/step4_nj1190.root\n'
p289
aS'root://cms-xrd-global.cern.ch///store/user/ratramon/HNLGen_ntuples/private_BToDMuN_HalfMu_Halfe_mass3p0_ctau184p0/step4_nj1191.root\n'
p290
aS'root://cms-xrd-global.cern.ch///store/user/ratramon/HNLGen_ntuples/private_BToDMuN_HalfMu_Halfe_mass3p0_ctau184p0/step4_nj1192.root\n'
p291
aS'root://cms-xrd-global.cern.ch///store/user/ratramon/HNLGen_ntuples/private_BToDMuN_HalfMu_Halfe_mass3p0_ctau184p0/step4_nj1193.root\n'
p292
aS'root://cms-xrd-global.cern.ch///store/user/ratramon/HNLGen_ntuples/private_BToDMuN_HalfMu_Halfe_mass3p0_ctau184p0/step4_nj1194.root\n'
p293
aS'root://cms-xrd-global.cern.ch///store/user/ratramon/HNLGen_ntuples/private_BToDMuN_HalfMu_Halfe_mass3p0_ctau184p0/step4_nj1195.root\n'
p294
aS'root://cms-xrd-global.cern.ch///store/user/ratramon/HNLGen_ntuples/private_BToDMuN_HalfMu_Halfe_mass3p0_ctau184p0/step4_nj1196.root\n'
p295
aS'root://cms-xrd-global.cern.ch///store/user/ratramon/HNLGen_ntuples/private_BToDMuN_HalfMu_Halfe_mass3p0_ctau184p0/step4_nj1197.root\n'
p296
aS'root://cms-xrd-global.cern.ch///store/user/ratramon/HNLGen_ntuples/private_BToDMuN_HalfMu_Halfe_mass3p0_ctau184p0/step4_nj1198.root\n'
p297
aS'root://cms-xrd-global.cern.ch///store/user/ratramon/HNLGen_ntuples/private_BToDMuN_HalfMu_Halfe_mass3p0_ctau184p0/step4_nj1199.root\n'
p298
aS'root://cms-xrd-global.cern.ch///store/user/ratramon/HNLGen_ntuples/private_BToDMuN_HalfMu_Halfe_mass3p0_ctau184p0/step4_nj12.root\n'
p299
aS'root://cms-xrd-global.cern.ch///store/user/ratramon/HNLGen_ntuples/private_BToDMuN_HalfMu_Halfe_mass3p0_ctau184p0/step4_nj120.root\n'
p300
aS'root://cms-xrd-global.cern.ch///store/user/ratramon/HNLGen_ntuples/private_BToDMuN_HalfMu_Halfe_mass3p0_ctau184p0/step4_nj1200.root\n'
p301
aS'root://cms-xrd-global.cern.ch///store/user/ratramon/HNLGen_ntuples/private_BToDMuN_HalfMu_Halfe_mass3p0_ctau184p0/step4_nj1201.root\n'
p302
aS'root://cms-xrd-global.cern.ch///store/user/ratramon/HNLGen_ntuples/private_BToDMuN_HalfMu_Halfe_mass3p0_ctau184p0/step4_nj1202.root\n'
p303
aS'root://cms-xrd-global.cern.ch///store/user/ratramon/HNLGen_ntuples/private_BToDMuN_HalfMu_Halfe_mass3p0_ctau184p0/step4_nj1203.root\n'
p304
aS'root://cms-xrd-global.cern.ch///store/user/ratramon/HNLGen_ntuples/private_BToDMuN_HalfMu_Halfe_mass3p0_ctau184p0/step4_nj1204.root\n'
p305
aS'root://cms-xrd-global.cern.ch///store/user/ratramon/HNLGen_ntuples/private_BToDMuN_HalfMu_Halfe_mass3p0_ctau184p0/step4_nj1205.root\n'
p306
aS'root://cms-xrd-global.cern.ch///store/user/ratramon/HNLGen_ntuples/private_BToDMuN_HalfMu_Halfe_mass3p0_ctau184p0/step4_nj1206.root\n'
p307
aS'root://cms-xrd-global.cern.ch///store/user/ratramon/HNLGen_ntuples/private_BToDMuN_HalfMu_Halfe_mass3p0_ctau184p0/step4_nj1207.root\n'
p308
aS'root://cms-xrd-global.cern.ch///store/user/ratramon/HNLGen_ntuples/private_BToDMuN_HalfMu_Halfe_mass3p0_ctau184p0/step4_nj1208.root\n'
p309
aS'root://cms-xrd-global.cern.ch///store/user/ratramon/HNLGen_ntuples/private_BToDMuN_HalfMu_Halfe_mass3p0_ctau184p0/step4_nj1209.root\n'
p310
aS'root://cms-xrd-global.cern.ch///store/user/ratramon/HNLGen_ntuples/private_BToDMuN_HalfMu_Halfe_mass3p0_ctau184p0/step4_nj121.root\n'
p311
aS'root://cms-xrd-global.cern.ch///store/user/ratramon/HNLGen_ntuples/private_BToDMuN_HalfMu_Halfe_mass3p0_ctau184p0/step4_nj1210.root\n'
p312
aS'root://cms-xrd-global.cern.ch///store/user/ratramon/HNLGen_ntuples/private_BToDMuN_HalfMu_Halfe_mass3p0_ctau184p0/step4_nj1211.root\n'
p313
aS'root://cms-xrd-global.cern.ch///store/user/ratramon/HNLGen_ntuples/private_BToDMuN_HalfMu_Halfe_mass3p0_ctau184p0/step4_nj1212.root\n'
p314
aS'root://cms-xrd-global.cern.ch///store/user/ratramon/HNLGen_ntuples/private_BToDMuN_HalfMu_Halfe_mass3p0_ctau184p0/step4_nj1213.root\n'
p315
aS'root://cms-xrd-global.cern.ch///store/user/ratramon/HNLGen_ntuples/private_BToDMuN_HalfMu_Halfe_mass3p0_ctau184p0/step4_nj1214.root\n'
p316
aS'root://cms-xrd-global.cern.ch///store/user/ratramon/HNLGen_ntuples/private_BToDMuN_HalfMu_Halfe_mass3p0_ctau184p0/step4_nj1215.root\n'
p317
aS'root://cms-xrd-global.cern.ch///store/user/ratramon/HNLGen_ntuples/private_BToDMuN_HalfMu_Halfe_mass3p0_ctau184p0/step4_nj1216.root\n'
p318
aS'root://cms-xrd-global.cern.ch///store/user/ratramon/HNLGen_ntuples/private_BToDMuN_HalfMu_Halfe_mass3p0_ctau184p0/step4_nj1217.root\n'
p319
aS'root://cms-xrd-global.cern.ch///store/user/ratramon/HNLGen_ntuples/private_BToDMuN_HalfMu_Halfe_mass3p0_ctau184p0/step4_nj1218.root\n'
p320
aS'root://cms-xrd-global.cern.ch///store/user/ratramon/HNLGen_ntuples/private_BToDMuN_HalfMu_Halfe_mass3p0_ctau184p0/step4_nj1219.root\n'
p321
aS'root://cms-xrd-global.cern.ch///store/user/ratramon/HNLGen_ntuples/private_BToDMuN_HalfMu_Halfe_mass3p0_ctau184p0/step4_nj122.root\n'
p322
aS'root://cms-xrd-global.cern.ch///store/user/ratramon/HNLGen_ntuples/private_BToDMuN_HalfMu_Halfe_mass3p0_ctau184p0/step4_nj1220.root\n'
p323
aS'root://cms-xrd-global.cern.ch///store/user/ratramon/HNLGen_ntuples/private_BToDMuN_HalfMu_Halfe_mass3p0_ctau184p0/step4_nj1221.root\n'
p324
aS'root://cms-xrd-global.cern.ch///store/user/ratramon/HNLGen_ntuples/private_BToDMuN_HalfMu_Halfe_mass3p0_ctau184p0/step4_nj1222.root\n'
p325
aS'root://cms-xrd-global.cern.ch///store/user/ratramon/HNLGen_ntuples/private_BToDMuN_HalfMu_Halfe_mass3p0_ctau184p0/step4_nj1223.root\n'
p326
aS'root://cms-xrd-global.cern.ch///store/user/ratramon/HNLGen_ntuples/private_BToDMuN_HalfMu_Halfe_mass3p0_ctau184p0/step4_nj1224.root\n'
p327
aS'root://cms-xrd-global.cern.ch///store/user/ratramon/HNLGen_ntuples/private_BToDMuN_HalfMu_Halfe_mass3p0_ctau184p0/step4_nj1225.root\n'
p328
aS'root://cms-xrd-global.cern.ch///store/user/ratramon/HNLGen_ntuples/private_BToDMuN_HalfMu_Halfe_mass3p0_ctau184p0/step4_nj1226.root\n'
p329
aS'root://cms-xrd-global.cern.ch///store/user/ratramon/HNLGen_ntuples/private_BToDMuN_HalfMu_Halfe_mass3p0_ctau184p0/step4_nj1227.root\n'
p330
aS'root://cms-xrd-global.cern.ch///store/user/ratramon/HNLGen_ntuples/private_BToDMuN_HalfMu_Halfe_mass3p0_ctau184p0/step4_nj1228.root\n'
p331
aS'root://cms-xrd-global.cern.ch///store/user/ratramon/HNLGen_ntuples/private_BToDMuN_HalfMu_Halfe_mass3p0_ctau184p0/step4_nj1229.root\n'
p332
aS'root://cms-xrd-global.cern.ch///store/user/ratramon/HNLGen_ntuples/private_BToDMuN_HalfMu_Halfe_mass3p0_ctau184p0/step4_nj123.root\n'
p333
aS'root://cms-xrd-global.cern.ch///store/user/ratramon/HNLGen_ntuples/private_BToDMuN_HalfMu_Halfe_mass3p0_ctau184p0/step4_nj1230.root\n'
p334
aS'root://cms-xrd-global.cern.ch///store/user/ratramon/HNLGen_ntuples/private_BToDMuN_HalfMu_Halfe_mass3p0_ctau184p0/step4_nj1231.root\n'
p335
aS'root://cms-xrd-global.cern.ch///store/user/ratramon/HNLGen_ntuples/private_BToDMuN_HalfMu_Halfe_mass3p0_ctau184p0/step4_nj1232.root\n'
p336
aS'root://cms-xrd-global.cern.ch///store/user/ratramon/HNLGen_ntuples/private_BToDMuN_HalfMu_Halfe_mass3p0_ctau184p0/step4_nj1233.root\n'
p337
aS'root://cms-xrd-global.cern.ch///store/user/ratramon/HNLGen_ntuples/private_BToDMuN_HalfMu_Halfe_mass3p0_ctau184p0/step4_nj1234.root\n'
p338
aS'root://cms-xrd-global.cern.ch///store/user/ratramon/HNLGen_ntuples/private_BToDMuN_HalfMu_Halfe_mass3p0_ctau184p0/step4_nj1235.root\n'
p339
aS'root://cms-xrd-global.cern.ch///store/user/ratramon/HNLGen_ntuples/private_BToDMuN_HalfMu_Halfe_mass3p0_ctau184p0/step4_nj1236.root\n'
p340
aS'root://cms-xrd-global.cern.ch///store/user/ratramon/HNLGen_ntuples/private_BToDMuN_HalfMu_Halfe_mass3p0_ctau184p0/step4_nj1237.root\n'
p341
aS'root://cms-xrd-global.cern.ch///store/user/ratramon/HNLGen_ntuples/private_BToDMuN_HalfMu_Halfe_mass3p0_ctau184p0/step4_nj1238.root\n'
p342
aS'root://cms-xrd-global.cern.ch///store/user/ratramon/HNLGen_ntuples/private_BToDMuN_HalfMu_Halfe_mass3p0_ctau184p0/step4_nj1239.root\n'
p343
aS'root://cms-xrd-global.cern.ch///store/user/ratramon/HNLGen_ntuples/private_BToDMuN_HalfMu_Halfe_mass3p0_ctau184p0/step4_nj124.root\n'
p344
aS'root://cms-xrd-global.cern.ch///store/user/ratramon/HNLGen_ntuples/private_BToDMuN_HalfMu_Halfe_mass3p0_ctau184p0/step4_nj1240.root\n'
p345
aS'root://cms-xrd-global.cern.ch///store/user/ratramon/HNLGen_ntuples/private_BToDMuN_HalfMu_Halfe_mass3p0_ctau184p0/step4_nj1241.root\n'
p346
aS'root://cms-xrd-global.cern.ch///store/user/ratramon/HNLGen_ntuples/private_BToDMuN_HalfMu_Halfe_mass3p0_ctau184p0/step4_nj1242.root\n'
p347
aS'root://cms-xrd-global.cern.ch///store/user/ratramon/HNLGen_ntuples/private_BToDMuN_HalfMu_Halfe_mass3p0_ctau184p0/step4_nj1243.root\n'
p348
aS'root://cms-xrd-global.cern.ch///store/user/ratramon/HNLGen_ntuples/private_BToDMuN_HalfMu_Halfe_mass3p0_ctau184p0/step4_nj125.root\n'
p349
aS'root://cms-xrd-global.cern.ch///store/user/ratramon/HNLGen_ntuples/private_BToDMuN_HalfMu_Halfe_mass3p0_ctau184p0/step4_nj126.root\n'
p350
aS'root://cms-xrd-global.cern.ch///store/user/ratramon/HNLGen_ntuples/private_BToDMuN_HalfMu_Halfe_mass3p0_ctau184p0/step4_nj127.root\n'
p351
aS'root://cms-xrd-global.cern.ch///store/user/ratramon/HNLGen_ntuples/private_BToDMuN_HalfMu_Halfe_mass3p0_ctau184p0/step4_nj128.root\n'
p352
aS'root://cms-xrd-global.cern.ch///store/user/ratramon/HNLGen_ntuples/private_BToDMuN_HalfMu_Halfe_mass3p0_ctau184p0/step4_nj129.root\n'
p353
aS'root://cms-xrd-global.cern.ch///store/user/ratramon/HNLGen_ntuples/private_BToDMuN_HalfMu_Halfe_mass3p0_ctau184p0/step4_nj13.root\n'
p354
aS'root://cms-xrd-global.cern.ch///store/user/ratramon/HNLGen_ntuples/private_BToDMuN_HalfMu_Halfe_mass3p0_ctau184p0/step4_nj130.root\n'
p355
aS'root://cms-xrd-global.cern.ch///store/user/ratramon/HNLGen_ntuples/private_BToDMuN_HalfMu_Halfe_mass3p0_ctau184p0/step4_nj131.root\n'
p356
aS'root://cms-xrd-global.cern.ch///store/user/ratramon/HNLGen_ntuples/private_BToDMuN_HalfMu_Halfe_mass3p0_ctau184p0/step4_nj132.root\n'
p357
aS'root://cms-xrd-global.cern.ch///store/user/ratramon/HNLGen_ntuples/private_BToDMuN_HalfMu_Halfe_mass3p0_ctau184p0/step4_nj133.root\n'
p358
aS'root://cms-xrd-global.cern.ch///store/user/ratramon/HNLGen_ntuples/private_BToDMuN_HalfMu_Halfe_mass3p0_ctau184p0/step4_nj134.root\n'
p359
aS'root://cms-xrd-global.cern.ch///store/user/ratramon/HNLGen_ntuples/private_BToDMuN_HalfMu_Halfe_mass3p0_ctau184p0/step4_nj135.root\n'
p360
aS'root://cms-xrd-global.cern.ch///store/user/ratramon/HNLGen_ntuples/private_BToDMuN_HalfMu_Halfe_mass3p0_ctau184p0/step4_nj136.root\n'
p361
aS'root://cms-xrd-global.cern.ch///store/user/ratramon/HNLGen_ntuples/private_BToDMuN_HalfMu_Halfe_mass3p0_ctau184p0/step4_nj137.root\n'
p362
aS'root://cms-xrd-global.cern.ch///store/user/ratramon/HNLGen_ntuples/private_BToDMuN_HalfMu_Halfe_mass3p0_ctau184p0/step4_nj138.root\n'
p363
aS'root://cms-xrd-global.cern.ch///store/user/ratramon/HNLGen_ntuples/private_BToDMuN_HalfMu_Halfe_mass3p0_ctau184p0/step4_nj139.root\n'
p364
aS'root://cms-xrd-global.cern.ch///store/user/ratramon/HNLGen_ntuples/private_BToDMuN_HalfMu_Halfe_mass3p0_ctau184p0/step4_nj14.root\n'
p365
aS'root://cms-xrd-global.cern.ch///store/user/ratramon/HNLGen_ntuples/private_BToDMuN_HalfMu_Halfe_mass3p0_ctau184p0/step4_nj140.root\n'
p366
aS'root://cms-xrd-global.cern.ch///store/user/ratramon/HNLGen_ntuples/private_BToDMuN_HalfMu_Halfe_mass3p0_ctau184p0/step4_nj141.root\n'
p367
aS'root://cms-xrd-global.cern.ch///store/user/ratramon/HNLGen_ntuples/private_BToDMuN_HalfMu_Halfe_mass3p0_ctau184p0/step4_nj142.root\n'
p368
aS'root://cms-xrd-global.cern.ch///store/user/ratramon/HNLGen_ntuples/private_BToDMuN_HalfMu_Halfe_mass3p0_ctau184p0/step4_nj143.root\n'
p369
aS'root://cms-xrd-global.cern.ch///store/user/ratramon/HNLGen_ntuples/private_BToDMuN_HalfMu_Halfe_mass3p0_ctau184p0/step4_nj144.root\n'
p370
aS'root://cms-xrd-global.cern.ch///store/user/ratramon/HNLGen_ntuples/private_BToDMuN_HalfMu_Halfe_mass3p0_ctau184p0/step4_nj145.root\n'
p371
aS'root://cms-xrd-global.cern.ch///store/user/ratramon/HNLGen_ntuples/private_BToDMuN_HalfMu_Halfe_mass3p0_ctau184p0/step4_nj146.root\n'
p372
aS'root://cms-xrd-global.cern.ch///store/user/ratramon/HNLGen_ntuples/private_BToDMuN_HalfMu_Halfe_mass3p0_ctau184p0/step4_nj147.root\n'
p373
aS'root://cms-xrd-global.cern.ch///store/user/ratramon/HNLGen_ntuples/private_BToDMuN_HalfMu_Halfe_mass3p0_ctau184p0/step4_nj148.root\n'
p374
aS'root://cms-xrd-global.cern.ch///store/user/ratramon/HNLGen_ntuples/private_BToDMuN_HalfMu_Halfe_mass3p0_ctau184p0/step4_nj149.root\n'
p375
aS'root://cms-xrd-global.cern.ch///store/user/ratramon/HNLGen_ntuples/private_BToDMuN_HalfMu_Halfe_mass3p0_ctau184p0/step4_nj15.root\n'
p376
aS'root://cms-xrd-global.cern.ch///store/user/ratramon/HNLGen_ntuples/private_BToDMuN_HalfMu_Halfe_mass3p0_ctau184p0/step4_nj150.root\n'
p377
aS'root://cms-xrd-global.cern.ch///store/user/ratramon/HNLGen_ntuples/private_BToDMuN_HalfMu_Halfe_mass3p0_ctau184p0/step4_nj151.root\n'
p378
aS'root://cms-xrd-global.cern.ch///store/user/ratramon/HNLGen_ntuples/private_BToDMuN_HalfMu_Halfe_mass3p0_ctau184p0/step4_nj152.root\n'
p379
aS'root://cms-xrd-global.cern.ch///store/user/ratramon/HNLGen_ntuples/private_BToDMuN_HalfMu_Halfe_mass3p0_ctau184p0/step4_nj153.root\n'
p380
aS'root://cms-xrd-global.cern.ch///store/user/ratramon/HNLGen_ntuples/private_BToDMuN_HalfMu_Halfe_mass3p0_ctau184p0/step4_nj154.root\n'
p381
aS'root://cms-xrd-global.cern.ch///store/user/ratramon/HNLGen_ntuples/private_BToDMuN_HalfMu_Halfe_mass3p0_ctau184p0/step4_nj155.root\n'
p382
aS'root://cms-xrd-global.cern.ch///store/user/ratramon/HNLGen_ntuples/private_BToDMuN_HalfMu_Halfe_mass3p0_ctau184p0/step4_nj156.root\n'
p383
aS'root://cms-xrd-global.cern.ch///store/user/ratramon/HNLGen_ntuples/private_BToDMuN_HalfMu_Halfe_mass3p0_ctau184p0/step4_nj157.root\n'
p384
aS'root://cms-xrd-global.cern.ch///store/user/ratramon/HNLGen_ntuples/private_BToDMuN_HalfMu_Halfe_mass3p0_ctau184p0/step4_nj158.root\n'
p385
aS'root://cms-xrd-global.cern.ch///store/user/ratramon/HNLGen_ntuples/private_BToDMuN_HalfMu_Halfe_mass3p0_ctau184p0/step4_nj159.root\n'
p386
aS'root://cms-xrd-global.cern.ch///store/user/ratramon/HNLGen_ntuples/private_BToDMuN_HalfMu_Halfe_mass3p0_ctau184p0/step4_nj16.root\n'
p387
aS'root://cms-xrd-global.cern.ch///store/user/ratramon/HNLGen_ntuples/private_BToDMuN_HalfMu_Halfe_mass3p0_ctau184p0/step4_nj160.root\n'
p388
aS'root://cms-xrd-global.cern.ch///store/user/ratramon/HNLGen_ntuples/private_BToDMuN_HalfMu_Halfe_mass3p0_ctau184p0/step4_nj161.root\n'
p389
aS'root://cms-xrd-global.cern.ch///store/user/ratramon/HNLGen_ntuples/private_BToDMuN_HalfMu_Halfe_mass3p0_ctau184p0/step4_nj162.root\n'
p390
aS'root://cms-xrd-global.cern.ch///store/user/ratramon/HNLGen_ntuples/private_BToDMuN_HalfMu_Halfe_mass3p0_ctau184p0/step4_nj163.root\n'
p391
aS'root://cms-xrd-global.cern.ch///store/user/ratramon/HNLGen_ntuples/private_BToDMuN_HalfMu_Halfe_mass3p0_ctau184p0/step4_nj164.root\n'
p392
aS'root://cms-xrd-global.cern.ch///store/user/ratramon/HNLGen_ntuples/private_BToDMuN_HalfMu_Halfe_mass3p0_ctau184p0/step4_nj165.root\n'
p393
aS'root://cms-xrd-global.cern.ch///store/user/ratramon/HNLGen_ntuples/private_BToDMuN_HalfMu_Halfe_mass3p0_ctau184p0/step4_nj166.root\n'
p394
aS'root://cms-xrd-global.cern.ch///store/user/ratramon/HNLGen_ntuples/private_BToDMuN_HalfMu_Halfe_mass3p0_ctau184p0/step4_nj167.root\n'
p395
aS'root://cms-xrd-global.cern.ch///store/user/ratramon/HNLGen_ntuples/private_BToDMuN_HalfMu_Halfe_mass3p0_ctau184p0/step4_nj168.root\n'
p396
aS'root://cms-xrd-global.cern.ch///store/user/ratramon/HNLGen_ntuples/private_BToDMuN_HalfMu_Halfe_mass3p0_ctau184p0/step4_nj169.root\n'
p397
aS'root://cms-xrd-global.cern.ch///store/user/ratramon/HNLGen_ntuples/private_BToDMuN_HalfMu_Halfe_mass3p0_ctau184p0/step4_nj17.root\n'
p398
aS'root://cms-xrd-global.cern.ch///store/user/ratramon/HNLGen_ntuples/private_BToDMuN_HalfMu_Halfe_mass3p0_ctau184p0/step4_nj170.root\n'
p399
aS'root://cms-xrd-global.cern.ch///store/user/ratramon/HNLGen_ntuples/private_BToDMuN_HalfMu_Halfe_mass3p0_ctau184p0/step4_nj171.root\n'
p400
aS'root://cms-xrd-global.cern.ch///store/user/ratramon/HNLGen_ntuples/private_BToDMuN_HalfMu_Halfe_mass3p0_ctau184p0/step4_nj172.root\n'
p401
aS'root://cms-xrd-global.cern.ch///store/user/ratramon/HNLGen_ntuples/private_BToDMuN_HalfMu_Halfe_mass3p0_ctau184p0/step4_nj173.root\n'
p402
aS'root://cms-xrd-global.cern.ch///store/user/ratramon/HNLGen_ntuples/private_BToDMuN_HalfMu_Halfe_mass3p0_ctau184p0/step4_nj174.root\n'
p403
aS'root://cms-xrd-global.cern.ch///store/user/ratramon/HNLGen_ntuples/private_BToDMuN_HalfMu_Halfe_mass3p0_ctau184p0/step4_nj175.root\n'
p404
aS'root://cms-xrd-global.cern.ch///store/user/ratramon/HNLGen_ntuples/private_BToDMuN_HalfMu_Halfe_mass3p0_ctau184p0/step4_nj176.root\n'
p405
aS'root://cms-xrd-global.cern.ch///store/user/ratramon/HNLGen_ntuples/private_BToDMuN_HalfMu_Halfe_mass3p0_ctau184p0/step4_nj177.root\n'
p406
aS'root://cms-xrd-global.cern.ch///store/user/ratramon/HNLGen_ntuples/private_BToDMuN_HalfMu_Halfe_mass3p0_ctau184p0/step4_nj178.root\n'
p407
aS'root://cms-xrd-global.cern.ch///store/user/ratramon/HNLGen_ntuples/private_BToDMuN_HalfMu_Halfe_mass3p0_ctau184p0/step4_nj179.root\n'
p408
aS'root://cms-xrd-global.cern.ch///store/user/ratramon/HNLGen_ntuples/private_BToDMuN_HalfMu_Halfe_mass3p0_ctau184p0/step4_nj18.root\n'
p409
aS'root://cms-xrd-global.cern.ch///store/user/ratramon/HNLGen_ntuples/private_BToDMuN_HalfMu_Halfe_mass3p0_ctau184p0/step4_nj180.root\n'
p410
aS'root://cms-xrd-global.cern.ch///store/user/ratramon/HNLGen_ntuples/private_BToDMuN_HalfMu_Halfe_mass3p0_ctau184p0/step4_nj181.root\n'
p411
aS'root://cms-xrd-global.cern.ch///store/user/ratramon/HNLGen_ntuples/private_BToDMuN_HalfMu_Halfe_mass3p0_ctau184p0/step4_nj182.root\n'
p412
aS'root://cms-xrd-global.cern.ch///store/user/ratramon/HNLGen_ntuples/private_BToDMuN_HalfMu_Halfe_mass3p0_ctau184p0/step4_nj183.root\n'
p413
aS'root://cms-xrd-global.cern.ch///store/user/ratramon/HNLGen_ntuples/private_BToDMuN_HalfMu_Halfe_mass3p0_ctau184p0/step4_nj184.root\n'
p414
aS'root://cms-xrd-global.cern.ch///store/user/ratramon/HNLGen_ntuples/private_BToDMuN_HalfMu_Halfe_mass3p0_ctau184p0/step4_nj185.root\n'
p415
aS'root://cms-xrd-global.cern.ch///store/user/ratramon/HNLGen_ntuples/private_BToDMuN_HalfMu_Halfe_mass3p0_ctau184p0/step4_nj186.root\n'
p416
aS'root://cms-xrd-global.cern.ch///store/user/ratramon/HNLGen_ntuples/private_BToDMuN_HalfMu_Halfe_mass3p0_ctau184p0/step4_nj187.root\n'
p417
aS'root://cms-xrd-global.cern.ch///store/user/ratramon/HNLGen_ntuples/private_BToDMuN_HalfMu_Halfe_mass3p0_ctau184p0/step4_nj188.root\n'
p418
aS'root://cms-xrd-global.cern.ch///store/user/ratramon/HNLGen_ntuples/private_BToDMuN_HalfMu_Halfe_mass3p0_ctau184p0/step4_nj189.root\n'
p419
aS'root://cms-xrd-global.cern.ch///store/user/ratramon/HNLGen_ntuples/private_BToDMuN_HalfMu_Halfe_mass3p0_ctau184p0/step4_nj19.root\n'
p420
aS'root://cms-xrd-global.cern.ch///store/user/ratramon/HNLGen_ntuples/private_BToDMuN_HalfMu_Halfe_mass3p0_ctau184p0/step4_nj190.root\n'
p421
aS'root://cms-xrd-global.cern.ch///store/user/ratramon/HNLGen_ntuples/private_BToDMuN_HalfMu_Halfe_mass3p0_ctau184p0/step4_nj191.root\n'
p422
aS'root://cms-xrd-global.cern.ch///store/user/ratramon/HNLGen_ntuples/private_BToDMuN_HalfMu_Halfe_mass3p0_ctau184p0/step4_nj192.root\n'
p423
aS'root://cms-xrd-global.cern.ch///store/user/ratramon/HNLGen_ntuples/private_BToDMuN_HalfMu_Halfe_mass3p0_ctau184p0/step4_nj193.root\n'
p424
aS'root://cms-xrd-global.cern.ch///store/user/ratramon/HNLGen_ntuples/private_BToDMuN_HalfMu_Halfe_mass3p0_ctau184p0/step4_nj194.root\n'
p425
aS'root://cms-xrd-global.cern.ch///store/user/ratramon/HNLGen_ntuples/private_BToDMuN_HalfMu_Halfe_mass3p0_ctau184p0/step4_nj195.root\n'
p426
aS'root://cms-xrd-global.cern.ch///store/user/ratramon/HNLGen_ntuples/private_BToDMuN_HalfMu_Halfe_mass3p0_ctau184p0/step4_nj196.root\n'
p427
aS'root://cms-xrd-global.cern.ch///store/user/ratramon/HNLGen_ntuples/private_BToDMuN_HalfMu_Halfe_mass3p0_ctau184p0/step4_nj197.root\n'
p428
aS'root://cms-xrd-global.cern.ch///store/user/ratramon/HNLGen_ntuples/private_BToDMuN_HalfMu_Halfe_mass3p0_ctau184p0/step4_nj198.root\n'
p429
aS'root://cms-xrd-global.cern.ch///store/user/ratramon/HNLGen_ntuples/private_BToDMuN_HalfMu_Halfe_mass3p0_ctau184p0/step4_nj199.root\n'
p430
aS'root://cms-xrd-global.cern.ch///store/user/ratramon/HNLGen_ntuples/private_BToDMuN_HalfMu_Halfe_mass3p0_ctau184p0/step4_nj2.root\n'
p431
aS'root://cms-xrd-global.cern.ch///store/user/ratramon/HNLGen_ntuples/private_BToDMuN_HalfMu_Halfe_mass3p0_ctau184p0/step4_nj20.root\n'
p432
aS'root://cms-xrd-global.cern.ch///store/user/ratramon/HNLGen_ntuples/private_BToDMuN_HalfMu_Halfe_mass3p0_ctau184p0/step4_nj200.root\n'
p433
aS'root://cms-xrd-global.cern.ch///store/user/ratramon/HNLGen_ntuples/private_BToDMuN_HalfMu_Halfe_mass3p0_ctau184p0/step4_nj201.root\n'
p434
aS'root://cms-xrd-global.cern.ch///store/user/ratramon/HNLGen_ntuples/private_BToDMuN_HalfMu_Halfe_mass3p0_ctau184p0/step4_nj202.root\n'
p435
aS'root://cms-xrd-global.cern.ch///store/user/ratramon/HNLGen_ntuples/private_BToDMuN_HalfMu_Halfe_mass3p0_ctau184p0/step4_nj203.root\n'
p436
aS'root://cms-xrd-global.cern.ch///store/user/ratramon/HNLGen_ntuples/private_BToDMuN_HalfMu_Halfe_mass3p0_ctau184p0/step4_nj204.root\n'
p437
aS'root://cms-xrd-global.cern.ch///store/user/ratramon/HNLGen_ntuples/private_BToDMuN_HalfMu_Halfe_mass3p0_ctau184p0/step4_nj205.root\n'
p438
aS'root://cms-xrd-global.cern.ch///store/user/ratramon/HNLGen_ntuples/private_BToDMuN_HalfMu_Halfe_mass3p0_ctau184p0/step4_nj206.root\n'
p439
aS'root://cms-xrd-global.cern.ch///store/user/ratramon/HNLGen_ntuples/private_BToDMuN_HalfMu_Halfe_mass3p0_ctau184p0/step4_nj207.root\n'
p440
aS'root://cms-xrd-global.cern.ch///store/user/ratramon/HNLGen_ntuples/private_BToDMuN_HalfMu_Halfe_mass3p0_ctau184p0/step4_nj208.root\n'
p441
aS'root://cms-xrd-global.cern.ch///store/user/ratramon/HNLGen_ntuples/private_BToDMuN_HalfMu_Halfe_mass3p0_ctau184p0/step4_nj209.root\n'
p442
aS'root://cms-xrd-global.cern.ch///store/user/ratramon/HNLGen_ntuples/private_BToDMuN_HalfMu_Halfe_mass3p0_ctau184p0/step4_nj21.root\n'
p443
aS'root://cms-xrd-global.cern.ch///store/user/ratramon/HNLGen_ntuples/private_BToDMuN_HalfMu_Halfe_mass3p0_ctau184p0/step4_nj210.root\n'
p444
aS'root://cms-xrd-global.cern.ch///store/user/ratramon/HNLGen_ntuples/private_BToDMuN_HalfMu_Halfe_mass3p0_ctau184p0/step4_nj211.root\n'
p445
aS'root://cms-xrd-global.cern.ch///store/user/ratramon/HNLGen_ntuples/private_BToDMuN_HalfMu_Halfe_mass3p0_ctau184p0/step4_nj212.root\n'
p446
aS'root://cms-xrd-global.cern.ch///store/user/ratramon/HNLGen_ntuples/private_BToDMuN_HalfMu_Halfe_mass3p0_ctau184p0/step4_nj213.root\n'
p447
aS'root://cms-xrd-global.cern.ch///store/user/ratramon/HNLGen_ntuples/private_BToDMuN_HalfMu_Halfe_mass3p0_ctau184p0/step4_nj214.root\n'
p448
aS'root://cms-xrd-global.cern.ch///store/user/ratramon/HNLGen_ntuples/private_BToDMuN_HalfMu_Halfe_mass3p0_ctau184p0/step4_nj215.root\n'
p449
aS'root://cms-xrd-global.cern.ch///store/user/ratramon/HNLGen_ntuples/private_BToDMuN_HalfMu_Halfe_mass3p0_ctau184p0/step4_nj216.root\n'
p450
aS'root://cms-xrd-global.cern.ch///store/user/ratramon/HNLGen_ntuples/private_BToDMuN_HalfMu_Halfe_mass3p0_ctau184p0/step4_nj217.root\n'
p451
aS'root://cms-xrd-global.cern.ch///store/user/ratramon/HNLGen_ntuples/private_BToDMuN_HalfMu_Halfe_mass3p0_ctau184p0/step4_nj218.root\n'
p452
aS'root://cms-xrd-global.cern.ch///store/user/ratramon/HNLGen_ntuples/private_BToDMuN_HalfMu_Halfe_mass3p0_ctau184p0/step4_nj219.root\n'
p453
aS'root://cms-xrd-global.cern.ch///store/user/ratramon/HNLGen_ntuples/private_BToDMuN_HalfMu_Halfe_mass3p0_ctau184p0/step4_nj22.root\n'
p454
aS'root://cms-xrd-global.cern.ch///store/user/ratramon/HNLGen_ntuples/private_BToDMuN_HalfMu_Halfe_mass3p0_ctau184p0/step4_nj220.root\n'
p455
aS'root://cms-xrd-global.cern.ch///store/user/ratramon/HNLGen_ntuples/private_BToDMuN_HalfMu_Halfe_mass3p0_ctau184p0/step4_nj221.root\n'
p456
aS'root://cms-xrd-global.cern.ch///store/user/ratramon/HNLGen_ntuples/private_BToDMuN_HalfMu_Halfe_mass3p0_ctau184p0/step4_nj222.root\n'
p457
aS'root://cms-xrd-global.cern.ch///store/user/ratramon/HNLGen_ntuples/private_BToDMuN_HalfMu_Halfe_mass3p0_ctau184p0/step4_nj223.root\n'
p458
aS'root://cms-xrd-global.cern.ch///store/user/ratramon/HNLGen_ntuples/private_BToDMuN_HalfMu_Halfe_mass3p0_ctau184p0/step4_nj224.root\n'
p459
aS'root://cms-xrd-global.cern.ch///store/user/ratramon/HNLGen_ntuples/private_BToDMuN_HalfMu_Halfe_mass3p0_ctau184p0/step4_nj225.root\n'
p460
aS'root://cms-xrd-global.cern.ch///store/user/ratramon/HNLGen_ntuples/private_BToDMuN_HalfMu_Halfe_mass3p0_ctau184p0/step4_nj226.root\n'
p461
aS'root://cms-xrd-global.cern.ch///store/user/ratramon/HNLGen_ntuples/private_BToDMuN_HalfMu_Halfe_mass3p0_ctau184p0/step4_nj227.root\n'
p462
aS'root://cms-xrd-global.cern.ch///store/user/ratramon/HNLGen_ntuples/private_BToDMuN_HalfMu_Halfe_mass3p0_ctau184p0/step4_nj228.root\n'
p463
aS'root://cms-xrd-global.cern.ch///store/user/ratramon/HNLGen_ntuples/private_BToDMuN_HalfMu_Halfe_mass3p0_ctau184p0/step4_nj229.root\n'
p464
aS'root://cms-xrd-global.cern.ch///store/user/ratramon/HNLGen_ntuples/private_BToDMuN_HalfMu_Halfe_mass3p0_ctau184p0/step4_nj23.root\n'
p465
aS'root://cms-xrd-global.cern.ch///store/user/ratramon/HNLGen_ntuples/private_BToDMuN_HalfMu_Halfe_mass3p0_ctau184p0/step4_nj230.root\n'
p466
aS'root://cms-xrd-global.cern.ch///store/user/ratramon/HNLGen_ntuples/private_BToDMuN_HalfMu_Halfe_mass3p0_ctau184p0/step4_nj231.root\n'
p467
aS'root://cms-xrd-global.cern.ch///store/user/ratramon/HNLGen_ntuples/private_BToDMuN_HalfMu_Halfe_mass3p0_ctau184p0/step4_nj232.root\n'
p468
aS'root://cms-xrd-global.cern.ch///store/user/ratramon/HNLGen_ntuples/private_BToDMuN_HalfMu_Halfe_mass3p0_ctau184p0/step4_nj233.root\n'
p469
aS'root://cms-xrd-global.cern.ch///store/user/ratramon/HNLGen_ntuples/private_BToDMuN_HalfMu_Halfe_mass3p0_ctau184p0/step4_nj234.root\n'
p470
aS'root://cms-xrd-global.cern.ch///store/user/ratramon/HNLGen_ntuples/private_BToDMuN_HalfMu_Halfe_mass3p0_ctau184p0/step4_nj235.root\n'
p471
aS'root://cms-xrd-global.cern.ch///store/user/ratramon/HNLGen_ntuples/private_BToDMuN_HalfMu_Halfe_mass3p0_ctau184p0/step4_nj236.root\n'
p472
aS'root://cms-xrd-global.cern.ch///store/user/ratramon/HNLGen_ntuples/private_BToDMuN_HalfMu_Halfe_mass3p0_ctau184p0/step4_nj237.root\n'
p473
aS'root://cms-xrd-global.cern.ch///store/user/ratramon/HNLGen_ntuples/private_BToDMuN_HalfMu_Halfe_mass3p0_ctau184p0/step4_nj238.root\n'
p474
aS'root://cms-xrd-global.cern.ch///store/user/ratramon/HNLGen_ntuples/private_BToDMuN_HalfMu_Halfe_mass3p0_ctau184p0/step4_nj239.root\n'
p475
aS'root://cms-xrd-global.cern.ch///store/user/ratramon/HNLGen_ntuples/private_BToDMuN_HalfMu_Halfe_mass3p0_ctau184p0/step4_nj24.root\n'
p476
aS'root://cms-xrd-global.cern.ch///store/user/ratramon/HNLGen_ntuples/private_BToDMuN_HalfMu_Halfe_mass3p0_ctau184p0/step4_nj240.root\n'
p477
aS'root://cms-xrd-global.cern.ch///store/user/ratramon/HNLGen_ntuples/private_BToDMuN_HalfMu_Halfe_mass3p0_ctau184p0/step4_nj241.root\n'
p478
aS'root://cms-xrd-global.cern.ch///store/user/ratramon/HNLGen_ntuples/private_BToDMuN_HalfMu_Halfe_mass3p0_ctau184p0/step4_nj242.root\n'
p479
aS'root://cms-xrd-global.cern.ch///store/user/ratramon/HNLGen_ntuples/private_BToDMuN_HalfMu_Halfe_mass3p0_ctau184p0/step4_nj243.root\n'
p480
aS'root://cms-xrd-global.cern.ch///store/user/ratramon/HNLGen_ntuples/private_BToDMuN_HalfMu_Halfe_mass3p0_ctau184p0/step4_nj244.root\n'
p481
aS'root://cms-xrd-global.cern.ch///store/user/ratramon/HNLGen_ntuples/private_BToDMuN_HalfMu_Halfe_mass3p0_ctau184p0/step4_nj245.root\n'
p482
aS'root://cms-xrd-global.cern.ch///store/user/ratramon/HNLGen_ntuples/private_BToDMuN_HalfMu_Halfe_mass3p0_ctau184p0/step4_nj247.root\n'
p483
aS'root://cms-xrd-global.cern.ch///store/user/ratramon/HNLGen_ntuples/private_BToDMuN_HalfMu_Halfe_mass3p0_ctau184p0/step4_nj248.root\n'
p484
aS'root://cms-xrd-global.cern.ch///store/user/ratramon/HNLGen_ntuples/private_BToDMuN_HalfMu_Halfe_mass3p0_ctau184p0/step4_nj249.root\n'
p485
aS'root://cms-xrd-global.cern.ch///store/user/ratramon/HNLGen_ntuples/private_BToDMuN_HalfMu_Halfe_mass3p0_ctau184p0/step4_nj25.root\n'
p486
aS'root://cms-xrd-global.cern.ch///store/user/ratramon/HNLGen_ntuples/private_BToDMuN_HalfMu_Halfe_mass3p0_ctau184p0/step4_nj250.root\n'
p487
aS'root://cms-xrd-global.cern.ch///store/user/ratramon/HNLGen_ntuples/private_BToDMuN_HalfMu_Halfe_mass3p0_ctau184p0/step4_nj251.root\n'
p488
aS'root://cms-xrd-global.cern.ch///store/user/ratramon/HNLGen_ntuples/private_BToDMuN_HalfMu_Halfe_mass3p0_ctau184p0/step4_nj252.root\n'
p489
aS'root://cms-xrd-global.cern.ch///store/user/ratramon/HNLGen_ntuples/private_BToDMuN_HalfMu_Halfe_mass3p0_ctau184p0/step4_nj253.root\n'
p490
aS'root://cms-xrd-global.cern.ch///store/user/ratramon/HNLGen_ntuples/private_BToDMuN_HalfMu_Halfe_mass3p0_ctau184p0/step4_nj254.root\n'
p491
aS'root://cms-xrd-global.cern.ch///store/user/ratramon/HNLGen_ntuples/private_BToDMuN_HalfMu_Halfe_mass3p0_ctau184p0/step4_nj255.root\n'
p492
aS'root://cms-xrd-global.cern.ch///store/user/ratramon/HNLGen_ntuples/private_BToDMuN_HalfMu_Halfe_mass3p0_ctau184p0/step4_nj256.root\n'
p493
aS'root://cms-xrd-global.cern.ch///store/user/ratramon/HNLGen_ntuples/private_BToDMuN_HalfMu_Halfe_mass3p0_ctau184p0/step4_nj257.root\n'
p494
aS'root://cms-xrd-global.cern.ch///store/user/ratramon/HNLGen_ntuples/private_BToDMuN_HalfMu_Halfe_mass3p0_ctau184p0/step4_nj258.root\n'
p495
aS'root://cms-xrd-global.cern.ch///store/user/ratramon/HNLGen_ntuples/private_BToDMuN_HalfMu_Halfe_mass3p0_ctau184p0/step4_nj259.root\n'
p496
aS'root://cms-xrd-global.cern.ch///store/user/ratramon/HNLGen_ntuples/private_BToDMuN_HalfMu_Halfe_mass3p0_ctau184p0/step4_nj26.root\n'
p497
aS'root://cms-xrd-global.cern.ch///store/user/ratramon/HNLGen_ntuples/private_BToDMuN_HalfMu_Halfe_mass3p0_ctau184p0/step4_nj260.root\n'
p498
aS'root://cms-xrd-global.cern.ch///store/user/ratramon/HNLGen_ntuples/private_BToDMuN_HalfMu_Halfe_mass3p0_ctau184p0/step4_nj261.root\n'
p499
aS'root://cms-xrd-global.cern.ch///store/user/ratramon/HNLGen_ntuples/private_BToDMuN_HalfMu_Halfe_mass3p0_ctau184p0/step4_nj262.root\n'
p500
aS'root://cms-xrd-global.cern.ch///store/user/ratramon/HNLGen_ntuples/private_BToDMuN_HalfMu_Halfe_mass3p0_ctau184p0/step4_nj263.root\n'
p501
aS'root://cms-xrd-global.cern.ch///store/user/ratramon/HNLGen_ntuples/private_BToDMuN_HalfMu_Halfe_mass3p0_ctau184p0/step4_nj264.root\n'
p502
aS'root://cms-xrd-global.cern.ch///store/user/ratramon/HNLGen_ntuples/private_BToDMuN_HalfMu_Halfe_mass3p0_ctau184p0/step4_nj265.root\n'
p503
aS'root://cms-xrd-global.cern.ch///store/user/ratramon/HNLGen_ntuples/private_BToDMuN_HalfMu_Halfe_mass3p0_ctau184p0/step4_nj266.root\n'
p504
aS'root://cms-xrd-global.cern.ch///store/user/ratramon/HNLGen_ntuples/private_BToDMuN_HalfMu_Halfe_mass3p0_ctau184p0/step4_nj267.root\n'
p505
aS'root://cms-xrd-global.cern.ch///store/user/ratramon/HNLGen_ntuples/private_BToDMuN_HalfMu_Halfe_mass3p0_ctau184p0/step4_nj268.root\n'
p506
aS'root://cms-xrd-global.cern.ch///store/user/ratramon/HNLGen_ntuples/private_BToDMuN_HalfMu_Halfe_mass3p0_ctau184p0/step4_nj269.root\n'
p507
aS'root://cms-xrd-global.cern.ch///store/user/ratramon/HNLGen_ntuples/private_BToDMuN_HalfMu_Halfe_mass3p0_ctau184p0/step4_nj27.root\n'
p508
aS'root://cms-xrd-global.cern.ch///store/user/ratramon/HNLGen_ntuples/private_BToDMuN_HalfMu_Halfe_mass3p0_ctau184p0/step4_nj270.root\n'
p509
aS'root://cms-xrd-global.cern.ch///store/user/ratramon/HNLGen_ntuples/private_BToDMuN_HalfMu_Halfe_mass3p0_ctau184p0/step4_nj271.root\n'
p510
aS'root://cms-xrd-global.cern.ch///store/user/ratramon/HNLGen_ntuples/private_BToDMuN_HalfMu_Halfe_mass3p0_ctau184p0/step4_nj272.root\n'
p511
aS'root://cms-xrd-global.cern.ch///store/user/ratramon/HNLGen_ntuples/private_BToDMuN_HalfMu_Halfe_mass3p0_ctau184p0/step4_nj273.root\n'
p512
aS'root://cms-xrd-global.cern.ch///store/user/ratramon/HNLGen_ntuples/private_BToDMuN_HalfMu_Halfe_mass3p0_ctau184p0/step4_nj274.root\n'
p513
aS'root://cms-xrd-global.cern.ch///store/user/ratramon/HNLGen_ntuples/private_BToDMuN_HalfMu_Halfe_mass3p0_ctau184p0/step4_nj275.root\n'
p514
aS'root://cms-xrd-global.cern.ch///store/user/ratramon/HNLGen_ntuples/private_BToDMuN_HalfMu_Halfe_mass3p0_ctau184p0/step4_nj276.root\n'
p515
aS'root://cms-xrd-global.cern.ch///store/user/ratramon/HNLGen_ntuples/private_BToDMuN_HalfMu_Halfe_mass3p0_ctau184p0/step4_nj277.root\n'
p516
aS'root://cms-xrd-global.cern.ch///store/user/ratramon/HNLGen_ntuples/private_BToDMuN_HalfMu_Halfe_mass3p0_ctau184p0/step4_nj278.root\n'
p517
aS'root://cms-xrd-global.cern.ch///store/user/ratramon/HNLGen_ntuples/private_BToDMuN_HalfMu_Halfe_mass3p0_ctau184p0/step4_nj279.root\n'
p518
aS'root://cms-xrd-global.cern.ch///store/user/ratramon/HNLGen_ntuples/private_BToDMuN_HalfMu_Halfe_mass3p0_ctau184p0/step4_nj28.root\n'
p519
aS'root://cms-xrd-global.cern.ch///store/user/ratramon/HNLGen_ntuples/private_BToDMuN_HalfMu_Halfe_mass3p0_ctau184p0/step4_nj280.root\n'
p520
aS'root://cms-xrd-global.cern.ch///store/user/ratramon/HNLGen_ntuples/private_BToDMuN_HalfMu_Halfe_mass3p0_ctau184p0/step4_nj281.root\n'
p521
aS'root://cms-xrd-global.cern.ch///store/user/ratramon/HNLGen_ntuples/private_BToDMuN_HalfMu_Halfe_mass3p0_ctau184p0/step4_nj282.root\n'
p522
aS'root://cms-xrd-global.cern.ch///store/user/ratramon/HNLGen_ntuples/private_BToDMuN_HalfMu_Halfe_mass3p0_ctau184p0/step4_nj283.root\n'
p523
aS'root://cms-xrd-global.cern.ch///store/user/ratramon/HNLGen_ntuples/private_BToDMuN_HalfMu_Halfe_mass3p0_ctau184p0/step4_nj284.root\n'
p524
aS'root://cms-xrd-global.cern.ch///store/user/ratramon/HNLGen_ntuples/private_BToDMuN_HalfMu_Halfe_mass3p0_ctau184p0/step4_nj285.root\n'
p525
aS'root://cms-xrd-global.cern.ch///store/user/ratramon/HNLGen_ntuples/private_BToDMuN_HalfMu_Halfe_mass3p0_ctau184p0/step4_nj286.root\n'
p526
aS'root://cms-xrd-global.cern.ch///store/user/ratramon/HNLGen_ntuples/private_BToDMuN_HalfMu_Halfe_mass3p0_ctau184p0/step4_nj287.root\n'
p527
aS'root://cms-xrd-global.cern.ch///store/user/ratramon/HNLGen_ntuples/private_BToDMuN_HalfMu_Halfe_mass3p0_ctau184p0/step4_nj288.root\n'
p528
aS'root://cms-xrd-global.cern.ch///store/user/ratramon/HNLGen_ntuples/private_BToDMuN_HalfMu_Halfe_mass3p0_ctau184p0/step4_nj289.root\n'
p529
aS'root://cms-xrd-global.cern.ch///store/user/ratramon/HNLGen_ntuples/private_BToDMuN_HalfMu_Halfe_mass3p0_ctau184p0/step4_nj29.root\n'
p530
aS'root://cms-xrd-global.cern.ch///store/user/ratramon/HNLGen_ntuples/private_BToDMuN_HalfMu_Halfe_mass3p0_ctau184p0/step4_nj290.root\n'
p531
aS'root://cms-xrd-global.cern.ch///store/user/ratramon/HNLGen_ntuples/private_BToDMuN_HalfMu_Halfe_mass3p0_ctau184p0/step4_nj291.root\n'
p532
aS'root://cms-xrd-global.cern.ch///store/user/ratramon/HNLGen_ntuples/private_BToDMuN_HalfMu_Halfe_mass3p0_ctau184p0/step4_nj292.root\n'
p533
aS'root://cms-xrd-global.cern.ch///store/user/ratramon/HNLGen_ntuples/private_BToDMuN_HalfMu_Halfe_mass3p0_ctau184p0/step4_nj293.root\n'
p534
aS'root://cms-xrd-global.cern.ch///store/user/ratramon/HNLGen_ntuples/private_BToDMuN_HalfMu_Halfe_mass3p0_ctau184p0/step4_nj294.root\n'
p535
aS'root://cms-xrd-global.cern.ch///store/user/ratramon/HNLGen_ntuples/private_BToDMuN_HalfMu_Halfe_mass3p0_ctau184p0/step4_nj295.root\n'
p536
aS'root://cms-xrd-global.cern.ch///store/user/ratramon/HNLGen_ntuples/private_BToDMuN_HalfMu_Halfe_mass3p0_ctau184p0/step4_nj296.root\n'
p537
aS'root://cms-xrd-global.cern.ch///store/user/ratramon/HNLGen_ntuples/private_BToDMuN_HalfMu_Halfe_mass3p0_ctau184p0/step4_nj297.root\n'
p538
aS'root://cms-xrd-global.cern.ch///store/user/ratramon/HNLGen_ntuples/private_BToDMuN_HalfMu_Halfe_mass3p0_ctau184p0/step4_nj298.root\n'
p539
aS'root://cms-xrd-global.cern.ch///store/user/ratramon/HNLGen_ntuples/private_BToDMuN_HalfMu_Halfe_mass3p0_ctau184p0/step4_nj299.root\n'
p540
aS'root://cms-xrd-global.cern.ch///store/user/ratramon/HNLGen_ntuples/private_BToDMuN_HalfMu_Halfe_mass3p0_ctau184p0/step4_nj3.root\n'
p541
aS'root://cms-xrd-global.cern.ch///store/user/ratramon/HNLGen_ntuples/private_BToDMuN_HalfMu_Halfe_mass3p0_ctau184p0/step4_nj30.root\n'
p542
aS'root://cms-xrd-global.cern.ch///store/user/ratramon/HNLGen_ntuples/private_BToDMuN_HalfMu_Halfe_mass3p0_ctau184p0/step4_nj300.root\n'
p543
aS'root://cms-xrd-global.cern.ch///store/user/ratramon/HNLGen_ntuples/private_BToDMuN_HalfMu_Halfe_mass3p0_ctau184p0/step4_nj301.root\n'
p544
aS'root://cms-xrd-global.cern.ch///store/user/ratramon/HNLGen_ntuples/private_BToDMuN_HalfMu_Halfe_mass3p0_ctau184p0/step4_nj302.root\n'
p545
aS'root://cms-xrd-global.cern.ch///store/user/ratramon/HNLGen_ntuples/private_BToDMuN_HalfMu_Halfe_mass3p0_ctau184p0/step4_nj303.root\n'
p546
aS'root://cms-xrd-global.cern.ch///store/user/ratramon/HNLGen_ntuples/private_BToDMuN_HalfMu_Halfe_mass3p0_ctau184p0/step4_nj304.root\n'
p547
aS'root://cms-xrd-global.cern.ch///store/user/ratramon/HNLGen_ntuples/private_BToDMuN_HalfMu_Halfe_mass3p0_ctau184p0/step4_nj305.root\n'
p548
aS'root://cms-xrd-global.cern.ch///store/user/ratramon/HNLGen_ntuples/private_BToDMuN_HalfMu_Halfe_mass3p0_ctau184p0/step4_nj306.root\n'
p549
aS'root://cms-xrd-global.cern.ch///store/user/ratramon/HNLGen_ntuples/private_BToDMuN_HalfMu_Halfe_mass3p0_ctau184p0/step4_nj308.root\n'
p550
aS'root://cms-xrd-global.cern.ch///store/user/ratramon/HNLGen_ntuples/private_BToDMuN_HalfMu_Halfe_mass3p0_ctau184p0/step4_nj309.root\n'
p551
aS'root://cms-xrd-global.cern.ch///store/user/ratramon/HNLGen_ntuples/private_BToDMuN_HalfMu_Halfe_mass3p0_ctau184p0/step4_nj31.root\n'
p552
aS'root://cms-xrd-global.cern.ch///store/user/ratramon/HNLGen_ntuples/private_BToDMuN_HalfMu_Halfe_mass3p0_ctau184p0/step4_nj310.root\n'
p553
aS'root://cms-xrd-global.cern.ch///store/user/ratramon/HNLGen_ntuples/private_BToDMuN_HalfMu_Halfe_mass3p0_ctau184p0/step4_nj311.root\n'
p554
aS'root://cms-xrd-global.cern.ch///store/user/ratramon/HNLGen_ntuples/private_BToDMuN_HalfMu_Halfe_mass3p0_ctau184p0/step4_nj312.root\n'
p555
aS'root://cms-xrd-global.cern.ch///store/user/ratramon/HNLGen_ntuples/private_BToDMuN_HalfMu_Halfe_mass3p0_ctau184p0/step4_nj313.root\n'
p556
aS'root://cms-xrd-global.cern.ch///store/user/ratramon/HNLGen_ntuples/private_BToDMuN_HalfMu_Halfe_mass3p0_ctau184p0/step4_nj314.root\n'
p557
aS'root://cms-xrd-global.cern.ch///store/user/ratramon/HNLGen_ntuples/private_BToDMuN_HalfMu_Halfe_mass3p0_ctau184p0/step4_nj315.root\n'
p558
aS'root://cms-xrd-global.cern.ch///store/user/ratramon/HNLGen_ntuples/private_BToDMuN_HalfMu_Halfe_mass3p0_ctau184p0/step4_nj316.root\n'
p559
aS'root://cms-xrd-global.cern.ch///store/user/ratramon/HNLGen_ntuples/private_BToDMuN_HalfMu_Halfe_mass3p0_ctau184p0/step4_nj317.root\n'
p560
aS'root://cms-xrd-global.cern.ch///store/user/ratramon/HNLGen_ntuples/private_BToDMuN_HalfMu_Halfe_mass3p0_ctau184p0/step4_nj318.root\n'
p561
aS'root://cms-xrd-global.cern.ch///store/user/ratramon/HNLGen_ntuples/private_BToDMuN_HalfMu_Halfe_mass3p0_ctau184p0/step4_nj319.root\n'
p562
aS'root://cms-xrd-global.cern.ch///store/user/ratramon/HNLGen_ntuples/private_BToDMuN_HalfMu_Halfe_mass3p0_ctau184p0/step4_nj32.root\n'
p563
aS'root://cms-xrd-global.cern.ch///store/user/ratramon/HNLGen_ntuples/private_BToDMuN_HalfMu_Halfe_mass3p0_ctau184p0/step4_nj320.root\n'
p564
aS'root://cms-xrd-global.cern.ch///store/user/ratramon/HNLGen_ntuples/private_BToDMuN_HalfMu_Halfe_mass3p0_ctau184p0/step4_nj321.root\n'
p565
aS'root://cms-xrd-global.cern.ch///store/user/ratramon/HNLGen_ntuples/private_BToDMuN_HalfMu_Halfe_mass3p0_ctau184p0/step4_nj322.root\n'
p566
aS'root://cms-xrd-global.cern.ch///store/user/ratramon/HNLGen_ntuples/private_BToDMuN_HalfMu_Halfe_mass3p0_ctau184p0/step4_nj323.root\n'
p567
aS'root://cms-xrd-global.cern.ch///store/user/ratramon/HNLGen_ntuples/private_BToDMuN_HalfMu_Halfe_mass3p0_ctau184p0/step4_nj324.root\n'
p568
aS'root://cms-xrd-global.cern.ch///store/user/ratramon/HNLGen_ntuples/private_BToDMuN_HalfMu_Halfe_mass3p0_ctau184p0/step4_nj325.root\n'
p569
aS'root://cms-xrd-global.cern.ch///store/user/ratramon/HNLGen_ntuples/private_BToDMuN_HalfMu_Halfe_mass3p0_ctau184p0/step4_nj326.root\n'
p570
aS'root://cms-xrd-global.cern.ch///store/user/ratramon/HNLGen_ntuples/private_BToDMuN_HalfMu_Halfe_mass3p0_ctau184p0/step4_nj327.root\n'
p571
aS'root://cms-xrd-global.cern.ch///store/user/ratramon/HNLGen_ntuples/private_BToDMuN_HalfMu_Halfe_mass3p0_ctau184p0/step4_nj328.root\n'
p572
aS'root://cms-xrd-global.cern.ch///store/user/ratramon/HNLGen_ntuples/private_BToDMuN_HalfMu_Halfe_mass3p0_ctau184p0/step4_nj329.root\n'
p573
aS'root://cms-xrd-global.cern.ch///store/user/ratramon/HNLGen_ntuples/private_BToDMuN_HalfMu_Halfe_mass3p0_ctau184p0/step4_nj33.root\n'
p574
aS'root://cms-xrd-global.cern.ch///store/user/ratramon/HNLGen_ntuples/private_BToDMuN_HalfMu_Halfe_mass3p0_ctau184p0/step4_nj330.root\n'
p575
aS'root://cms-xrd-global.cern.ch///store/user/ratramon/HNLGen_ntuples/private_BToDMuN_HalfMu_Halfe_mass3p0_ctau184p0/step4_nj331.root\n'
p576
aS'root://cms-xrd-global.cern.ch///store/user/ratramon/HNLGen_ntuples/private_BToDMuN_HalfMu_Halfe_mass3p0_ctau184p0/step4_nj332.root\n'
p577
aS'root://cms-xrd-global.cern.ch///store/user/ratramon/HNLGen_ntuples/private_BToDMuN_HalfMu_Halfe_mass3p0_ctau184p0/step4_nj333.root\n'
p578
aS'root://cms-xrd-global.cern.ch///store/user/ratramon/HNLGen_ntuples/private_BToDMuN_HalfMu_Halfe_mass3p0_ctau184p0/step4_nj334.root\n'
p579
aS'root://cms-xrd-global.cern.ch///store/user/ratramon/HNLGen_ntuples/private_BToDMuN_HalfMu_Halfe_mass3p0_ctau184p0/step4_nj335.root\n'
p580
aS'root://cms-xrd-global.cern.ch///store/user/ratramon/HNLGen_ntuples/private_BToDMuN_HalfMu_Halfe_mass3p0_ctau184p0/step4_nj336.root\n'
p581
aS'root://cms-xrd-global.cern.ch///store/user/ratramon/HNLGen_ntuples/private_BToDMuN_HalfMu_Halfe_mass3p0_ctau184p0/step4_nj337.root\n'
p582
aS'root://cms-xrd-global.cern.ch///store/user/ratramon/HNLGen_ntuples/private_BToDMuN_HalfMu_Halfe_mass3p0_ctau184p0/step4_nj338.root\n'
p583
aS'root://cms-xrd-global.cern.ch///store/user/ratramon/HNLGen_ntuples/private_BToDMuN_HalfMu_Halfe_mass3p0_ctau184p0/step4_nj339.root\n'
p584
aS'root://cms-xrd-global.cern.ch///store/user/ratramon/HNLGen_ntuples/private_BToDMuN_HalfMu_Halfe_mass3p0_ctau184p0/step4_nj34.root\n'
p585
aS'root://cms-xrd-global.cern.ch///store/user/ratramon/HNLGen_ntuples/private_BToDMuN_HalfMu_Halfe_mass3p0_ctau184p0/step4_nj340.root\n'
p586
aS'root://cms-xrd-global.cern.ch///store/user/ratramon/HNLGen_ntuples/private_BToDMuN_HalfMu_Halfe_mass3p0_ctau184p0/step4_nj341.root\n'
p587
aS'root://cms-xrd-global.cern.ch///store/user/ratramon/HNLGen_ntuples/private_BToDMuN_HalfMu_Halfe_mass3p0_ctau184p0/step4_nj342.root\n'
p588
aS'root://cms-xrd-global.cern.ch///store/user/ratramon/HNLGen_ntuples/private_BToDMuN_HalfMu_Halfe_mass3p0_ctau184p0/step4_nj343.root\n'
p589
aS'root://cms-xrd-global.cern.ch///store/user/ratramon/HNLGen_ntuples/private_BToDMuN_HalfMu_Halfe_mass3p0_ctau184p0/step4_nj344.root\n'
p590
aS'root://cms-xrd-global.cern.ch///store/user/ratramon/HNLGen_ntuples/private_BToDMuN_HalfMu_Halfe_mass3p0_ctau184p0/step4_nj345.root\n'
p591
aS'root://cms-xrd-global.cern.ch///store/user/ratramon/HNLGen_ntuples/private_BToDMuN_HalfMu_Halfe_mass3p0_ctau184p0/step4_nj346.root\n'
p592
aS'root://cms-xrd-global.cern.ch///store/user/ratramon/HNLGen_ntuples/private_BToDMuN_HalfMu_Halfe_mass3p0_ctau184p0/step4_nj347.root\n'
p593
aS'root://cms-xrd-global.cern.ch///store/user/ratramon/HNLGen_ntuples/private_BToDMuN_HalfMu_Halfe_mass3p0_ctau184p0/step4_nj348.root\n'
p594
aS'root://cms-xrd-global.cern.ch///store/user/ratramon/HNLGen_ntuples/private_BToDMuN_HalfMu_Halfe_mass3p0_ctau184p0/step4_nj349.root\n'
p595
aS'root://cms-xrd-global.cern.ch///store/user/ratramon/HNLGen_ntuples/private_BToDMuN_HalfMu_Halfe_mass3p0_ctau184p0/step4_nj35.root\n'
p596
aS'root://cms-xrd-global.cern.ch///store/user/ratramon/HNLGen_ntuples/private_BToDMuN_HalfMu_Halfe_mass3p0_ctau184p0/step4_nj350.root\n'
p597
aS'root://cms-xrd-global.cern.ch///store/user/ratramon/HNLGen_ntuples/private_BToDMuN_HalfMu_Halfe_mass3p0_ctau184p0/step4_nj351.root\n'
p598
aS'root://cms-xrd-global.cern.ch///store/user/ratramon/HNLGen_ntuples/private_BToDMuN_HalfMu_Halfe_mass3p0_ctau184p0/step4_nj352.root\n'
p599
aS'root://cms-xrd-global.cern.ch///store/user/ratramon/HNLGen_ntuples/private_BToDMuN_HalfMu_Halfe_mass3p0_ctau184p0/step4_nj353.root\n'
p600
aS'root://cms-xrd-global.cern.ch///store/user/ratramon/HNLGen_ntuples/private_BToDMuN_HalfMu_Halfe_mass3p0_ctau184p0/step4_nj354.root\n'
p601
aS'root://cms-xrd-global.cern.ch///store/user/ratramon/HNLGen_ntuples/private_BToDMuN_HalfMu_Halfe_mass3p0_ctau184p0/step4_nj355.root\n'
p602
aS'root://cms-xrd-global.cern.ch///store/user/ratramon/HNLGen_ntuples/private_BToDMuN_HalfMu_Halfe_mass3p0_ctau184p0/step4_nj356.root\n'
p603
aS'root://cms-xrd-global.cern.ch///store/user/ratramon/HNLGen_ntuples/private_BToDMuN_HalfMu_Halfe_mass3p0_ctau184p0/step4_nj357.root\n'
p604
aS'root://cms-xrd-global.cern.ch///store/user/ratramon/HNLGen_ntuples/private_BToDMuN_HalfMu_Halfe_mass3p0_ctau184p0/step4_nj358.root\n'
p605
aS'root://cms-xrd-global.cern.ch///store/user/ratramon/HNLGen_ntuples/private_BToDMuN_HalfMu_Halfe_mass3p0_ctau184p0/step4_nj359.root\n'
p606
aS'root://cms-xrd-global.cern.ch///store/user/ratramon/HNLGen_ntuples/private_BToDMuN_HalfMu_Halfe_mass3p0_ctau184p0/step4_nj36.root\n'
p607
aS'root://cms-xrd-global.cern.ch///store/user/ratramon/HNLGen_ntuples/private_BToDMuN_HalfMu_Halfe_mass3p0_ctau184p0/step4_nj360.root\n'
p608
aS'root://cms-xrd-global.cern.ch///store/user/ratramon/HNLGen_ntuples/private_BToDMuN_HalfMu_Halfe_mass3p0_ctau184p0/step4_nj361.root\n'
p609
aS'root://cms-xrd-global.cern.ch///store/user/ratramon/HNLGen_ntuples/private_BToDMuN_HalfMu_Halfe_mass3p0_ctau184p0/step4_nj362.root\n'
p610
aS'root://cms-xrd-global.cern.ch///store/user/ratramon/HNLGen_ntuples/private_BToDMuN_HalfMu_Halfe_mass3p0_ctau184p0/step4_nj363.root\n'
p611
aS'root://cms-xrd-global.cern.ch///store/user/ratramon/HNLGen_ntuples/private_BToDMuN_HalfMu_Halfe_mass3p0_ctau184p0/step4_nj364.root\n'
p612
aS'root://cms-xrd-global.cern.ch///store/user/ratramon/HNLGen_ntuples/private_BToDMuN_HalfMu_Halfe_mass3p0_ctau184p0/step4_nj365.root\n'
p613
aS'root://cms-xrd-global.cern.ch///store/user/ratramon/HNLGen_ntuples/private_BToDMuN_HalfMu_Halfe_mass3p0_ctau184p0/step4_nj366.root\n'
p614
aS'root://cms-xrd-global.cern.ch///store/user/ratramon/HNLGen_ntuples/private_BToDMuN_HalfMu_Halfe_mass3p0_ctau184p0/step4_nj367.root\n'
p615
aS'root://cms-xrd-global.cern.ch///store/user/ratramon/HNLGen_ntuples/private_BToDMuN_HalfMu_Halfe_mass3p0_ctau184p0/step4_nj368.root\n'
p616
aS'root://cms-xrd-global.cern.ch///store/user/ratramon/HNLGen_ntuples/private_BToDMuN_HalfMu_Halfe_mass3p0_ctau184p0/step4_nj369.root\n'
p617
aS'root://cms-xrd-global.cern.ch///store/user/ratramon/HNLGen_ntuples/private_BToDMuN_HalfMu_Halfe_mass3p0_ctau184p0/step4_nj37.root\n'
p618
aS'root://cms-xrd-global.cern.ch///store/user/ratramon/HNLGen_ntuples/private_BToDMuN_HalfMu_Halfe_mass3p0_ctau184p0/step4_nj370.root\n'
p619
aS'root://cms-xrd-global.cern.ch///store/user/ratramon/HNLGen_ntuples/private_BToDMuN_HalfMu_Halfe_mass3p0_ctau184p0/step4_nj371.root\n'
p620
aS'root://cms-xrd-global.cern.ch///store/user/ratramon/HNLGen_ntuples/private_BToDMuN_HalfMu_Halfe_mass3p0_ctau184p0/step4_nj372.root\n'
p621
aS'root://cms-xrd-global.cern.ch///store/user/ratramon/HNLGen_ntuples/private_BToDMuN_HalfMu_Halfe_mass3p0_ctau184p0/step4_nj373.root\n'
p622
aS'root://cms-xrd-global.cern.ch///store/user/ratramon/HNLGen_ntuples/private_BToDMuN_HalfMu_Halfe_mass3p0_ctau184p0/step4_nj374.root\n'
p623
aS'root://cms-xrd-global.cern.ch///store/user/ratramon/HNLGen_ntuples/private_BToDMuN_HalfMu_Halfe_mass3p0_ctau184p0/step4_nj375.root\n'
p624
aS'root://cms-xrd-global.cern.ch///store/user/ratramon/HNLGen_ntuples/private_BToDMuN_HalfMu_Halfe_mass3p0_ctau184p0/step4_nj376.root\n'
p625
aS'root://cms-xrd-global.cern.ch///store/user/ratramon/HNLGen_ntuples/private_BToDMuN_HalfMu_Halfe_mass3p0_ctau184p0/step4_nj377.root\n'
p626
aS'root://cms-xrd-global.cern.ch///store/user/ratramon/HNLGen_ntuples/private_BToDMuN_HalfMu_Halfe_mass3p0_ctau184p0/step4_nj378.root\n'
p627
aS'root://cms-xrd-global.cern.ch///store/user/ratramon/HNLGen_ntuples/private_BToDMuN_HalfMu_Halfe_mass3p0_ctau184p0/step4_nj379.root\n'
p628
aS'root://cms-xrd-global.cern.ch///store/user/ratramon/HNLGen_ntuples/private_BToDMuN_HalfMu_Halfe_mass3p0_ctau184p0/step4_nj38.root\n'
p629
aS'root://cms-xrd-global.cern.ch///store/user/ratramon/HNLGen_ntuples/private_BToDMuN_HalfMu_Halfe_mass3p0_ctau184p0/step4_nj380.root\n'
p630
aS'root://cms-xrd-global.cern.ch///store/user/ratramon/HNLGen_ntuples/private_BToDMuN_HalfMu_Halfe_mass3p0_ctau184p0/step4_nj381.root\n'
p631
aS'root://cms-xrd-global.cern.ch///store/user/ratramon/HNLGen_ntuples/private_BToDMuN_HalfMu_Halfe_mass3p0_ctau184p0/step4_nj382.root\n'
p632
aS'root://cms-xrd-global.cern.ch///store/user/ratramon/HNLGen_ntuples/private_BToDMuN_HalfMu_Halfe_mass3p0_ctau184p0/step4_nj383.root\n'
p633
aS'root://cms-xrd-global.cern.ch///store/user/ratramon/HNLGen_ntuples/private_BToDMuN_HalfMu_Halfe_mass3p0_ctau184p0/step4_nj384.root\n'
p634
aS'root://cms-xrd-global.cern.ch///store/user/ratramon/HNLGen_ntuples/private_BToDMuN_HalfMu_Halfe_mass3p0_ctau184p0/step4_nj385.root\n'
p635
aS'root://cms-xrd-global.cern.ch///store/user/ratramon/HNLGen_ntuples/private_BToDMuN_HalfMu_Halfe_mass3p0_ctau184p0/step4_nj386.root\n'
p636
aS'root://cms-xrd-global.cern.ch///store/user/ratramon/HNLGen_ntuples/private_BToDMuN_HalfMu_Halfe_mass3p0_ctau184p0/step4_nj387.root\n'
p637
aS'root://cms-xrd-global.cern.ch///store/user/ratramon/HNLGen_ntuples/private_BToDMuN_HalfMu_Halfe_mass3p0_ctau184p0/step4_nj388.root\n'
p638
aS'root://cms-xrd-global.cern.ch///store/user/ratramon/HNLGen_ntuples/private_BToDMuN_HalfMu_Halfe_mass3p0_ctau184p0/step4_nj389.root\n'
p639
aS'root://cms-xrd-global.cern.ch///store/user/ratramon/HNLGen_ntuples/private_BToDMuN_HalfMu_Halfe_mass3p0_ctau184p0/step4_nj39.root\n'
p640
aS'root://cms-xrd-global.cern.ch///store/user/ratramon/HNLGen_ntuples/private_BToDMuN_HalfMu_Halfe_mass3p0_ctau184p0/step4_nj390.root\n'
p641
aS'root://cms-xrd-global.cern.ch///store/user/ratramon/HNLGen_ntuples/private_BToDMuN_HalfMu_Halfe_mass3p0_ctau184p0/step4_nj391.root\n'
p642
aS'root://cms-xrd-global.cern.ch///store/user/ratramon/HNLGen_ntuples/private_BToDMuN_HalfMu_Halfe_mass3p0_ctau184p0/step4_nj392.root\n'
p643
aS'root://cms-xrd-global.cern.ch///store/user/ratramon/HNLGen_ntuples/private_BToDMuN_HalfMu_Halfe_mass3p0_ctau184p0/step4_nj393.root\n'
p644
aS'root://cms-xrd-global.cern.ch///store/user/ratramon/HNLGen_ntuples/private_BToDMuN_HalfMu_Halfe_mass3p0_ctau184p0/step4_nj394.root\n'
p645
aS'root://cms-xrd-global.cern.ch///store/user/ratramon/HNLGen_ntuples/private_BToDMuN_HalfMu_Halfe_mass3p0_ctau184p0/step4_nj395.root\n'
p646
aS'root://cms-xrd-global.cern.ch///store/user/ratramon/HNLGen_ntuples/private_BToDMuN_HalfMu_Halfe_mass3p0_ctau184p0/step4_nj396.root\n'
p647
aS'root://cms-xrd-global.cern.ch///store/user/ratramon/HNLGen_ntuples/private_BToDMuN_HalfMu_Halfe_mass3p0_ctau184p0/step4_nj397.root\n'
p648
aS'root://cms-xrd-global.cern.ch///store/user/ratramon/HNLGen_ntuples/private_BToDMuN_HalfMu_Halfe_mass3p0_ctau184p0/step4_nj398.root\n'
p649
aS'root://cms-xrd-global.cern.ch///store/user/ratramon/HNLGen_ntuples/private_BToDMuN_HalfMu_Halfe_mass3p0_ctau184p0/step4_nj399.root\n'
p650
aS'root://cms-xrd-global.cern.ch///store/user/ratramon/HNLGen_ntuples/private_BToDMuN_HalfMu_Halfe_mass3p0_ctau184p0/step4_nj4.root\n'
p651
aS'root://cms-xrd-global.cern.ch///store/user/ratramon/HNLGen_ntuples/private_BToDMuN_HalfMu_Halfe_mass3p0_ctau184p0/step4_nj40.root\n'
p652
aS'root://cms-xrd-global.cern.ch///store/user/ratramon/HNLGen_ntuples/private_BToDMuN_HalfMu_Halfe_mass3p0_ctau184p0/step4_nj400.root\n'
p653
aS'root://cms-xrd-global.cern.ch///store/user/ratramon/HNLGen_ntuples/private_BToDMuN_HalfMu_Halfe_mass3p0_ctau184p0/step4_nj401.root\n'
p654
aS'root://cms-xrd-global.cern.ch///store/user/ratramon/HNLGen_ntuples/private_BToDMuN_HalfMu_Halfe_mass3p0_ctau184p0/step4_nj402.root\n'
p655
aS'root://cms-xrd-global.cern.ch///store/user/ratramon/HNLGen_ntuples/private_BToDMuN_HalfMu_Halfe_mass3p0_ctau184p0/step4_nj403.root\n'
p656
aS'root://cms-xrd-global.cern.ch///store/user/ratramon/HNLGen_ntuples/private_BToDMuN_HalfMu_Halfe_mass3p0_ctau184p0/step4_nj404.root\n'
p657
aS'root://cms-xrd-global.cern.ch///store/user/ratramon/HNLGen_ntuples/private_BToDMuN_HalfMu_Halfe_mass3p0_ctau184p0/step4_nj405.root\n'
p658
aS'root://cms-xrd-global.cern.ch///store/user/ratramon/HNLGen_ntuples/private_BToDMuN_HalfMu_Halfe_mass3p0_ctau184p0/step4_nj406.root\n'
p659
aS'root://cms-xrd-global.cern.ch///store/user/ratramon/HNLGen_ntuples/private_BToDMuN_HalfMu_Halfe_mass3p0_ctau184p0/step4_nj407.root\n'
p660
aS'root://cms-xrd-global.cern.ch///store/user/ratramon/HNLGen_ntuples/private_BToDMuN_HalfMu_Halfe_mass3p0_ctau184p0/step4_nj408.root\n'
p661
aS'root://cms-xrd-global.cern.ch///store/user/ratramon/HNLGen_ntuples/private_BToDMuN_HalfMu_Halfe_mass3p0_ctau184p0/step4_nj409.root\n'
p662
aS'root://cms-xrd-global.cern.ch///store/user/ratramon/HNLGen_ntuples/private_BToDMuN_HalfMu_Halfe_mass3p0_ctau184p0/step4_nj41.root\n'
p663
aS'root://cms-xrd-global.cern.ch///store/user/ratramon/HNLGen_ntuples/private_BToDMuN_HalfMu_Halfe_mass3p0_ctau184p0/step4_nj410.root\n'
p664
aS'root://cms-xrd-global.cern.ch///store/user/ratramon/HNLGen_ntuples/private_BToDMuN_HalfMu_Halfe_mass3p0_ctau184p0/step4_nj411.root\n'
p665
aS'root://cms-xrd-global.cern.ch///store/user/ratramon/HNLGen_ntuples/private_BToDMuN_HalfMu_Halfe_mass3p0_ctau184p0/step4_nj412.root\n'
p666
aS'root://cms-xrd-global.cern.ch///store/user/ratramon/HNLGen_ntuples/private_BToDMuN_HalfMu_Halfe_mass3p0_ctau184p0/step4_nj413.root\n'
p667
aS'root://cms-xrd-global.cern.ch///store/user/ratramon/HNLGen_ntuples/private_BToDMuN_HalfMu_Halfe_mass3p0_ctau184p0/step4_nj414.root\n'
p668
aS'root://cms-xrd-global.cern.ch///store/user/ratramon/HNLGen_ntuples/private_BToDMuN_HalfMu_Halfe_mass3p0_ctau184p0/step4_nj415.root\n'
p669
aS'root://cms-xrd-global.cern.ch///store/user/ratramon/HNLGen_ntuples/private_BToDMuN_HalfMu_Halfe_mass3p0_ctau184p0/step4_nj416.root\n'
p670
aS'root://cms-xrd-global.cern.ch///store/user/ratramon/HNLGen_ntuples/private_BToDMuN_HalfMu_Halfe_mass3p0_ctau184p0/step4_nj417.root\n'
p671
aS'root://cms-xrd-global.cern.ch///store/user/ratramon/HNLGen_ntuples/private_BToDMuN_HalfMu_Halfe_mass3p0_ctau184p0/step4_nj418.root\n'
p672
aS'root://cms-xrd-global.cern.ch///store/user/ratramon/HNLGen_ntuples/private_BToDMuN_HalfMu_Halfe_mass3p0_ctau184p0/step4_nj419.root\n'
p673
aS'root://cms-xrd-global.cern.ch///store/user/ratramon/HNLGen_ntuples/private_BToDMuN_HalfMu_Halfe_mass3p0_ctau184p0/step4_nj42.root\n'
p674
aS'root://cms-xrd-global.cern.ch///store/user/ratramon/HNLGen_ntuples/private_BToDMuN_HalfMu_Halfe_mass3p0_ctau184p0/step4_nj420.root\n'
p675
aS'root://cms-xrd-global.cern.ch///store/user/ratramon/HNLGen_ntuples/private_BToDMuN_HalfMu_Halfe_mass3p0_ctau184p0/step4_nj421.root\n'
p676
aS'root://cms-xrd-global.cern.ch///store/user/ratramon/HNLGen_ntuples/private_BToDMuN_HalfMu_Halfe_mass3p0_ctau184p0/step4_nj422.root\n'
p677
aS'root://cms-xrd-global.cern.ch///store/user/ratramon/HNLGen_ntuples/private_BToDMuN_HalfMu_Halfe_mass3p0_ctau184p0/step4_nj423.root\n'
p678
aS'root://cms-xrd-global.cern.ch///store/user/ratramon/HNLGen_ntuples/private_BToDMuN_HalfMu_Halfe_mass3p0_ctau184p0/step4_nj424.root\n'
p679
aS'root://cms-xrd-global.cern.ch///store/user/ratramon/HNLGen_ntuples/private_BToDMuN_HalfMu_Halfe_mass3p0_ctau184p0/step4_nj425.root\n'
p680
aS'root://cms-xrd-global.cern.ch///store/user/ratramon/HNLGen_ntuples/private_BToDMuN_HalfMu_Halfe_mass3p0_ctau184p0/step4_nj426.root\n'
p681
aS'root://cms-xrd-global.cern.ch///store/user/ratramon/HNLGen_ntuples/private_BToDMuN_HalfMu_Halfe_mass3p0_ctau184p0/step4_nj427.root\n'
p682
aS'root://cms-xrd-global.cern.ch///store/user/ratramon/HNLGen_ntuples/private_BToDMuN_HalfMu_Halfe_mass3p0_ctau184p0/step4_nj428.root\n'
p683
aS'root://cms-xrd-global.cern.ch///store/user/ratramon/HNLGen_ntuples/private_BToDMuN_HalfMu_Halfe_mass3p0_ctau184p0/step4_nj429.root\n'
p684
aS'root://cms-xrd-global.cern.ch///store/user/ratramon/HNLGen_ntuples/private_BToDMuN_HalfMu_Halfe_mass3p0_ctau184p0/step4_nj43.root\n'
p685
aS'root://cms-xrd-global.cern.ch///store/user/ratramon/HNLGen_ntuples/private_BToDMuN_HalfMu_Halfe_mass3p0_ctau184p0/step4_nj430.root\n'
p686
aS'root://cms-xrd-global.cern.ch///store/user/ratramon/HNLGen_ntuples/private_BToDMuN_HalfMu_Halfe_mass3p0_ctau184p0/step4_nj431.root\n'
p687
aS'root://cms-xrd-global.cern.ch///store/user/ratramon/HNLGen_ntuples/private_BToDMuN_HalfMu_Halfe_mass3p0_ctau184p0/step4_nj432.root\n'
p688
aS'root://cms-xrd-global.cern.ch///store/user/ratramon/HNLGen_ntuples/private_BToDMuN_HalfMu_Halfe_mass3p0_ctau184p0/step4_nj433.root\n'
p689
aS'root://cms-xrd-global.cern.ch///store/user/ratramon/HNLGen_ntuples/private_BToDMuN_HalfMu_Halfe_mass3p0_ctau184p0/step4_nj434.root\n'
p690
aS'root://cms-xrd-global.cern.ch///store/user/ratramon/HNLGen_ntuples/private_BToDMuN_HalfMu_Halfe_mass3p0_ctau184p0/step4_nj435.root\n'
p691
aS'root://cms-xrd-global.cern.ch///store/user/ratramon/HNLGen_ntuples/private_BToDMuN_HalfMu_Halfe_mass3p0_ctau184p0/step4_nj436.root\n'
p692
aS'root://cms-xrd-global.cern.ch///store/user/ratramon/HNLGen_ntuples/private_BToDMuN_HalfMu_Halfe_mass3p0_ctau184p0/step4_nj439.root\n'
p693
aS'root://cms-xrd-global.cern.ch///store/user/ratramon/HNLGen_ntuples/private_BToDMuN_HalfMu_Halfe_mass3p0_ctau184p0/step4_nj44.root\n'
p694
aS'root://cms-xrd-global.cern.ch///store/user/ratramon/HNLGen_ntuples/private_BToDMuN_HalfMu_Halfe_mass3p0_ctau184p0/step4_nj440.root\n'
p695
aS'root://cms-xrd-global.cern.ch///store/user/ratramon/HNLGen_ntuples/private_BToDMuN_HalfMu_Halfe_mass3p0_ctau184p0/step4_nj441.root\n'
p696
aS'root://cms-xrd-global.cern.ch///store/user/ratramon/HNLGen_ntuples/private_BToDMuN_HalfMu_Halfe_mass3p0_ctau184p0/step4_nj442.root\n'
p697
aS'root://cms-xrd-global.cern.ch///store/user/ratramon/HNLGen_ntuples/private_BToDMuN_HalfMu_Halfe_mass3p0_ctau184p0/step4_nj443.root\n'
p698
aS'root://cms-xrd-global.cern.ch///store/user/ratramon/HNLGen_ntuples/private_BToDMuN_HalfMu_Halfe_mass3p0_ctau184p0/step4_nj444.root\n'
p699
aS'root://cms-xrd-global.cern.ch///store/user/ratramon/HNLGen_ntuples/private_BToDMuN_HalfMu_Halfe_mass3p0_ctau184p0/step4_nj445.root\n'
p700
aS'root://cms-xrd-global.cern.ch///store/user/ratramon/HNLGen_ntuples/private_BToDMuN_HalfMu_Halfe_mass3p0_ctau184p0/step4_nj446.root\n'
p701
aS'root://cms-xrd-global.cern.ch///store/user/ratramon/HNLGen_ntuples/private_BToDMuN_HalfMu_Halfe_mass3p0_ctau184p0/step4_nj447.root\n'
p702
aS'root://cms-xrd-global.cern.ch///store/user/ratramon/HNLGen_ntuples/private_BToDMuN_HalfMu_Halfe_mass3p0_ctau184p0/step4_nj448.root\n'
p703
aS'root://cms-xrd-global.cern.ch///store/user/ratramon/HNLGen_ntuples/private_BToDMuN_HalfMu_Halfe_mass3p0_ctau184p0/step4_nj449.root\n'
p704
aS'root://cms-xrd-global.cern.ch///store/user/ratramon/HNLGen_ntuples/private_BToDMuN_HalfMu_Halfe_mass3p0_ctau184p0/step4_nj45.root\n'
p705
aS'root://cms-xrd-global.cern.ch///store/user/ratramon/HNLGen_ntuples/private_BToDMuN_HalfMu_Halfe_mass3p0_ctau184p0/step4_nj450.root\n'
p706
aS'root://cms-xrd-global.cern.ch///store/user/ratramon/HNLGen_ntuples/private_BToDMuN_HalfMu_Halfe_mass3p0_ctau184p0/step4_nj451.root\n'
p707
aS'root://cms-xrd-global.cern.ch///store/user/ratramon/HNLGen_ntuples/private_BToDMuN_HalfMu_Halfe_mass3p0_ctau184p0/step4_nj452.root\n'
p708
aS'root://cms-xrd-global.cern.ch///store/user/ratramon/HNLGen_ntuples/private_BToDMuN_HalfMu_Halfe_mass3p0_ctau184p0/step4_nj453.root\n'
p709
aS'root://cms-xrd-global.cern.ch///store/user/ratramon/HNLGen_ntuples/private_BToDMuN_HalfMu_Halfe_mass3p0_ctau184p0/step4_nj454.root\n'
p710
aS'root://cms-xrd-global.cern.ch///store/user/ratramon/HNLGen_ntuples/private_BToDMuN_HalfMu_Halfe_mass3p0_ctau184p0/step4_nj455.root\n'
p711
aS'root://cms-xrd-global.cern.ch///store/user/ratramon/HNLGen_ntuples/private_BToDMuN_HalfMu_Halfe_mass3p0_ctau184p0/step4_nj456.root\n'
p712
aS'root://cms-xrd-global.cern.ch///store/user/ratramon/HNLGen_ntuples/private_BToDMuN_HalfMu_Halfe_mass3p0_ctau184p0/step4_nj457.root\n'
p713
aS'root://cms-xrd-global.cern.ch///store/user/ratramon/HNLGen_ntuples/private_BToDMuN_HalfMu_Halfe_mass3p0_ctau184p0/step4_nj458.root\n'
p714
aS'root://cms-xrd-global.cern.ch///store/user/ratramon/HNLGen_ntuples/private_BToDMuN_HalfMu_Halfe_mass3p0_ctau184p0/step4_nj459.root\n'
p715
aS'root://cms-xrd-global.cern.ch///store/user/ratramon/HNLGen_ntuples/private_BToDMuN_HalfMu_Halfe_mass3p0_ctau184p0/step4_nj46.root\n'
p716
aS'root://cms-xrd-global.cern.ch///store/user/ratramon/HNLGen_ntuples/private_BToDMuN_HalfMu_Halfe_mass3p0_ctau184p0/step4_nj460.root\n'
p717
aS'root://cms-xrd-global.cern.ch///store/user/ratramon/HNLGen_ntuples/private_BToDMuN_HalfMu_Halfe_mass3p0_ctau184p0/step4_nj461.root\n'
p718
aS'root://cms-xrd-global.cern.ch///store/user/ratramon/HNLGen_ntuples/private_BToDMuN_HalfMu_Halfe_mass3p0_ctau184p0/step4_nj462.root\n'
p719
aS'root://cms-xrd-global.cern.ch///store/user/ratramon/HNLGen_ntuples/private_BToDMuN_HalfMu_Halfe_mass3p0_ctau184p0/step4_nj463.root\n'
p720
aS'root://cms-xrd-global.cern.ch///store/user/ratramon/HNLGen_ntuples/private_BToDMuN_HalfMu_Halfe_mass3p0_ctau184p0/step4_nj464.root\n'
p721
aS'root://cms-xrd-global.cern.ch///store/user/ratramon/HNLGen_ntuples/private_BToDMuN_HalfMu_Halfe_mass3p0_ctau184p0/step4_nj465.root\n'
p722
aS'root://cms-xrd-global.cern.ch///store/user/ratramon/HNLGen_ntuples/private_BToDMuN_HalfMu_Halfe_mass3p0_ctau184p0/step4_nj466.root\n'
p723
aS'root://cms-xrd-global.cern.ch///store/user/ratramon/HNLGen_ntuples/private_BToDMuN_HalfMu_Halfe_mass3p0_ctau184p0/step4_nj467.root\n'
p724
aS'root://cms-xrd-global.cern.ch///store/user/ratramon/HNLGen_ntuples/private_BToDMuN_HalfMu_Halfe_mass3p0_ctau184p0/step4_nj468.root\n'
p725
aS'root://cms-xrd-global.cern.ch///store/user/ratramon/HNLGen_ntuples/private_BToDMuN_HalfMu_Halfe_mass3p0_ctau184p0/step4_nj469.root\n'
p726
aS'root://cms-xrd-global.cern.ch///store/user/ratramon/HNLGen_ntuples/private_BToDMuN_HalfMu_Halfe_mass3p0_ctau184p0/step4_nj47.root\n'
p727
aS'root://cms-xrd-global.cern.ch///store/user/ratramon/HNLGen_ntuples/private_BToDMuN_HalfMu_Halfe_mass3p0_ctau184p0/step4_nj470.root\n'
p728
aS'root://cms-xrd-global.cern.ch///store/user/ratramon/HNLGen_ntuples/private_BToDMuN_HalfMu_Halfe_mass3p0_ctau184p0/step4_nj471.root\n'
p729
aS'root://cms-xrd-global.cern.ch///store/user/ratramon/HNLGen_ntuples/private_BToDMuN_HalfMu_Halfe_mass3p0_ctau184p0/step4_nj472.root\n'
p730
aS'root://cms-xrd-global.cern.ch///store/user/ratramon/HNLGen_ntuples/private_BToDMuN_HalfMu_Halfe_mass3p0_ctau184p0/step4_nj473.root\n'
p731
aS'root://cms-xrd-global.cern.ch///store/user/ratramon/HNLGen_ntuples/private_BToDMuN_HalfMu_Halfe_mass3p0_ctau184p0/step4_nj474.root\n'
p732
aS'root://cms-xrd-global.cern.ch///store/user/ratramon/HNLGen_ntuples/private_BToDMuN_HalfMu_Halfe_mass3p0_ctau184p0/step4_nj475.root\n'
p733
aS'root://cms-xrd-global.cern.ch///store/user/ratramon/HNLGen_ntuples/private_BToDMuN_HalfMu_Halfe_mass3p0_ctau184p0/step4_nj476.root\n'
p734
aS'root://cms-xrd-global.cern.ch///store/user/ratramon/HNLGen_ntuples/private_BToDMuN_HalfMu_Halfe_mass3p0_ctau184p0/step4_nj477.root\n'
p735
aS'root://cms-xrd-global.cern.ch///store/user/ratramon/HNLGen_ntuples/private_BToDMuN_HalfMu_Halfe_mass3p0_ctau184p0/step4_nj478.root\n'
p736
aS'root://cms-xrd-global.cern.ch///store/user/ratramon/HNLGen_ntuples/private_BToDMuN_HalfMu_Halfe_mass3p0_ctau184p0/step4_nj479.root\n'
p737
aS'root://cms-xrd-global.cern.ch///store/user/ratramon/HNLGen_ntuples/private_BToDMuN_HalfMu_Halfe_mass3p0_ctau184p0/step4_nj48.root\n'
p738
aS'root://cms-xrd-global.cern.ch///store/user/ratramon/HNLGen_ntuples/private_BToDMuN_HalfMu_Halfe_mass3p0_ctau184p0/step4_nj480.root\n'
p739
aS'root://cms-xrd-global.cern.ch///store/user/ratramon/HNLGen_ntuples/private_BToDMuN_HalfMu_Halfe_mass3p0_ctau184p0/step4_nj481.root\n'
p740
aS'root://cms-xrd-global.cern.ch///store/user/ratramon/HNLGen_ntuples/private_BToDMuN_HalfMu_Halfe_mass3p0_ctau184p0/step4_nj482.root\n'
p741
aS'root://cms-xrd-global.cern.ch///store/user/ratramon/HNLGen_ntuples/private_BToDMuN_HalfMu_Halfe_mass3p0_ctau184p0/step4_nj483.root\n'
p742
aS'root://cms-xrd-global.cern.ch///store/user/ratramon/HNLGen_ntuples/private_BToDMuN_HalfMu_Halfe_mass3p0_ctau184p0/step4_nj484.root\n'
p743
aS'root://cms-xrd-global.cern.ch///store/user/ratramon/HNLGen_ntuples/private_BToDMuN_HalfMu_Halfe_mass3p0_ctau184p0/step4_nj485.root\n'
p744
aS'root://cms-xrd-global.cern.ch///store/user/ratramon/HNLGen_ntuples/private_BToDMuN_HalfMu_Halfe_mass3p0_ctau184p0/step4_nj486.root\n'
p745
aS'root://cms-xrd-global.cern.ch///store/user/ratramon/HNLGen_ntuples/private_BToDMuN_HalfMu_Halfe_mass3p0_ctau184p0/step4_nj487.root\n'
p746
aS'root://cms-xrd-global.cern.ch///store/user/ratramon/HNLGen_ntuples/private_BToDMuN_HalfMu_Halfe_mass3p0_ctau184p0/step4_nj488.root\n'
p747
aS'root://cms-xrd-global.cern.ch///store/user/ratramon/HNLGen_ntuples/private_BToDMuN_HalfMu_Halfe_mass3p0_ctau184p0/step4_nj489.root\n'
p748
aS'root://cms-xrd-global.cern.ch///store/user/ratramon/HNLGen_ntuples/private_BToDMuN_HalfMu_Halfe_mass3p0_ctau184p0/step4_nj49.root\n'
p749
aS'root://cms-xrd-global.cern.ch///store/user/ratramon/HNLGen_ntuples/private_BToDMuN_HalfMu_Halfe_mass3p0_ctau184p0/step4_nj490.root\n'
p750
aS'root://cms-xrd-global.cern.ch///store/user/ratramon/HNLGen_ntuples/private_BToDMuN_HalfMu_Halfe_mass3p0_ctau184p0/step4_nj491.root\n'
p751
aS'root://cms-xrd-global.cern.ch///store/user/ratramon/HNLGen_ntuples/private_BToDMuN_HalfMu_Halfe_mass3p0_ctau184p0/step4_nj492.root\n'
p752
aS'root://cms-xrd-global.cern.ch///store/user/ratramon/HNLGen_ntuples/private_BToDMuN_HalfMu_Halfe_mass3p0_ctau184p0/step4_nj493.root\n'
p753
aS'root://cms-xrd-global.cern.ch///store/user/ratramon/HNLGen_ntuples/private_BToDMuN_HalfMu_Halfe_mass3p0_ctau184p0/step4_nj494.root\n'
p754
aS'root://cms-xrd-global.cern.ch///store/user/ratramon/HNLGen_ntuples/private_BToDMuN_HalfMu_Halfe_mass3p0_ctau184p0/step4_nj496.root\n'
p755
aS'root://cms-xrd-global.cern.ch///store/user/ratramon/HNLGen_ntuples/private_BToDMuN_HalfMu_Halfe_mass3p0_ctau184p0/step4_nj497.root\n'
p756
aS'root://cms-xrd-global.cern.ch///store/user/ratramon/HNLGen_ntuples/private_BToDMuN_HalfMu_Halfe_mass3p0_ctau184p0/step4_nj498.root\n'
p757
aS'root://cms-xrd-global.cern.ch///store/user/ratramon/HNLGen_ntuples/private_BToDMuN_HalfMu_Halfe_mass3p0_ctau184p0/step4_nj499.root\n'
p758
aS'root://cms-xrd-global.cern.ch///store/user/ratramon/HNLGen_ntuples/private_BToDMuN_HalfMu_Halfe_mass3p0_ctau184p0/step4_nj5.root\n'
p759
aS'root://cms-xrd-global.cern.ch///store/user/ratramon/HNLGen_ntuples/private_BToDMuN_HalfMu_Halfe_mass3p0_ctau184p0/step4_nj50.root\n'
p760
aS'root://cms-xrd-global.cern.ch///store/user/ratramon/HNLGen_ntuples/private_BToDMuN_HalfMu_Halfe_mass3p0_ctau184p0/step4_nj500.root\n'
p761
aS'root://cms-xrd-global.cern.ch///store/user/ratramon/HNLGen_ntuples/private_BToDMuN_HalfMu_Halfe_mass3p0_ctau184p0/step4_nj501.root\n'
p762
aS'root://cms-xrd-global.cern.ch///store/user/ratramon/HNLGen_ntuples/private_BToDMuN_HalfMu_Halfe_mass3p0_ctau184p0/step4_nj502.root\n'
p763
aS'root://cms-xrd-global.cern.ch///store/user/ratramon/HNLGen_ntuples/private_BToDMuN_HalfMu_Halfe_mass3p0_ctau184p0/step4_nj503.root\n'
p764
aS'root://cms-xrd-global.cern.ch///store/user/ratramon/HNLGen_ntuples/private_BToDMuN_HalfMu_Halfe_mass3p0_ctau184p0/step4_nj504.root\n'
p765
aS'root://cms-xrd-global.cern.ch///store/user/ratramon/HNLGen_ntuples/private_BToDMuN_HalfMu_Halfe_mass3p0_ctau184p0/step4_nj505.root\n'
p766
aS'root://cms-xrd-global.cern.ch///store/user/ratramon/HNLGen_ntuples/private_BToDMuN_HalfMu_Halfe_mass3p0_ctau184p0/step4_nj506.root\n'
p767
aS'root://cms-xrd-global.cern.ch///store/user/ratramon/HNLGen_ntuples/private_BToDMuN_HalfMu_Halfe_mass3p0_ctau184p0/step4_nj507.root\n'
p768
aS'root://cms-xrd-global.cern.ch///store/user/ratramon/HNLGen_ntuples/private_BToDMuN_HalfMu_Halfe_mass3p0_ctau184p0/step4_nj508.root\n'
p769
aS'root://cms-xrd-global.cern.ch///store/user/ratramon/HNLGen_ntuples/private_BToDMuN_HalfMu_Halfe_mass3p0_ctau184p0/step4_nj509.root\n'
p770
aS'root://cms-xrd-global.cern.ch///store/user/ratramon/HNLGen_ntuples/private_BToDMuN_HalfMu_Halfe_mass3p0_ctau184p0/step4_nj51.root\n'
p771
aS'root://cms-xrd-global.cern.ch///store/user/ratramon/HNLGen_ntuples/private_BToDMuN_HalfMu_Halfe_mass3p0_ctau184p0/step4_nj510.root\n'
p772
aS'root://cms-xrd-global.cern.ch///store/user/ratramon/HNLGen_ntuples/private_BToDMuN_HalfMu_Halfe_mass3p0_ctau184p0/step4_nj511.root\n'
p773
aS'root://cms-xrd-global.cern.ch///store/user/ratramon/HNLGen_ntuples/private_BToDMuN_HalfMu_Halfe_mass3p0_ctau184p0/step4_nj512.root\n'
p774
aS'root://cms-xrd-global.cern.ch///store/user/ratramon/HNLGen_ntuples/private_BToDMuN_HalfMu_Halfe_mass3p0_ctau184p0/step4_nj513.root\n'
p775
aS'root://cms-xrd-global.cern.ch///store/user/ratramon/HNLGen_ntuples/private_BToDMuN_HalfMu_Halfe_mass3p0_ctau184p0/step4_nj514.root\n'
p776
aS'root://cms-xrd-global.cern.ch///store/user/ratramon/HNLGen_ntuples/private_BToDMuN_HalfMu_Halfe_mass3p0_ctau184p0/step4_nj515.root\n'
p777
aS'root://cms-xrd-global.cern.ch///store/user/ratramon/HNLGen_ntuples/private_BToDMuN_HalfMu_Halfe_mass3p0_ctau184p0/step4_nj516.root\n'
p778
aS'root://cms-xrd-global.cern.ch///store/user/ratramon/HNLGen_ntuples/private_BToDMuN_HalfMu_Halfe_mass3p0_ctau184p0/step4_nj517.root\n'
p779
aS'root://cms-xrd-global.cern.ch///store/user/ratramon/HNLGen_ntuples/private_BToDMuN_HalfMu_Halfe_mass3p0_ctau184p0/step4_nj518.root\n'
p780
aS'root://cms-xrd-global.cern.ch///store/user/ratramon/HNLGen_ntuples/private_BToDMuN_HalfMu_Halfe_mass3p0_ctau184p0/step4_nj519.root\n'
p781
aS'root://cms-xrd-global.cern.ch///store/user/ratramon/HNLGen_ntuples/private_BToDMuN_HalfMu_Halfe_mass3p0_ctau184p0/step4_nj52.root\n'
p782
aS'root://cms-xrd-global.cern.ch///store/user/ratramon/HNLGen_ntuples/private_BToDMuN_HalfMu_Halfe_mass3p0_ctau184p0/step4_nj520.root\n'
p783
aS'root://cms-xrd-global.cern.ch///store/user/ratramon/HNLGen_ntuples/private_BToDMuN_HalfMu_Halfe_mass3p0_ctau184p0/step4_nj521.root\n'
p784
aS'root://cms-xrd-global.cern.ch///store/user/ratramon/HNLGen_ntuples/private_BToDMuN_HalfMu_Halfe_mass3p0_ctau184p0/step4_nj522.root\n'
p785
aS'root://cms-xrd-global.cern.ch///store/user/ratramon/HNLGen_ntuples/private_BToDMuN_HalfMu_Halfe_mass3p0_ctau184p0/step4_nj523.root\n'
p786
aS'root://cms-xrd-global.cern.ch///store/user/ratramon/HNLGen_ntuples/private_BToDMuN_HalfMu_Halfe_mass3p0_ctau184p0/step4_nj524.root\n'
p787
aS'root://cms-xrd-global.cern.ch///store/user/ratramon/HNLGen_ntuples/private_BToDMuN_HalfMu_Halfe_mass3p0_ctau184p0/step4_nj525.root\n'
p788
aS'root://cms-xrd-global.cern.ch///store/user/ratramon/HNLGen_ntuples/private_BToDMuN_HalfMu_Halfe_mass3p0_ctau184p0/step4_nj526.root\n'
p789
aS'root://cms-xrd-global.cern.ch///store/user/ratramon/HNLGen_ntuples/private_BToDMuN_HalfMu_Halfe_mass3p0_ctau184p0/step4_nj527.root\n'
p790
aS'root://cms-xrd-global.cern.ch///store/user/ratramon/HNLGen_ntuples/private_BToDMuN_HalfMu_Halfe_mass3p0_ctau184p0/step4_nj528.root\n'
p791
aS'root://cms-xrd-global.cern.ch///store/user/ratramon/HNLGen_ntuples/private_BToDMuN_HalfMu_Halfe_mass3p0_ctau184p0/step4_nj529.root\n'
p792
aS'root://cms-xrd-global.cern.ch///store/user/ratramon/HNLGen_ntuples/private_BToDMuN_HalfMu_Halfe_mass3p0_ctau184p0/step4_nj53.root\n'
p793
aS'root://cms-xrd-global.cern.ch///store/user/ratramon/HNLGen_ntuples/private_BToDMuN_HalfMu_Halfe_mass3p0_ctau184p0/step4_nj530.root\n'
p794
aS'root://cms-xrd-global.cern.ch///store/user/ratramon/HNLGen_ntuples/private_BToDMuN_HalfMu_Halfe_mass3p0_ctau184p0/step4_nj531.root\n'
p795
aS'root://cms-xrd-global.cern.ch///store/user/ratramon/HNLGen_ntuples/private_BToDMuN_HalfMu_Halfe_mass3p0_ctau184p0/step4_nj532.root\n'
p796
aS'root://cms-xrd-global.cern.ch///store/user/ratramon/HNLGen_ntuples/private_BToDMuN_HalfMu_Halfe_mass3p0_ctau184p0/step4_nj533.root\n'
p797
aS'root://cms-xrd-global.cern.ch///store/user/ratramon/HNLGen_ntuples/private_BToDMuN_HalfMu_Halfe_mass3p0_ctau184p0/step4_nj534.root\n'
p798
aS'root://cms-xrd-global.cern.ch///store/user/ratramon/HNLGen_ntuples/private_BToDMuN_HalfMu_Halfe_mass3p0_ctau184p0/step4_nj535.root\n'
p799
aS'root://cms-xrd-global.cern.ch///store/user/ratramon/HNLGen_ntuples/private_BToDMuN_HalfMu_Halfe_mass3p0_ctau184p0/step4_nj536.root\n'
p800
aS'root://cms-xrd-global.cern.ch///store/user/ratramon/HNLGen_ntuples/private_BToDMuN_HalfMu_Halfe_mass3p0_ctau184p0/step4_nj537.root\n'
p801
aS'root://cms-xrd-global.cern.ch///store/user/ratramon/HNLGen_ntuples/private_BToDMuN_HalfMu_Halfe_mass3p0_ctau184p0/step4_nj538.root\n'
p802
aS'root://cms-xrd-global.cern.ch///store/user/ratramon/HNLGen_ntuples/private_BToDMuN_HalfMu_Halfe_mass3p0_ctau184p0/step4_nj539.root\n'
p803
aS'root://cms-xrd-global.cern.ch///store/user/ratramon/HNLGen_ntuples/private_BToDMuN_HalfMu_Halfe_mass3p0_ctau184p0/step4_nj54.root\n'
p804
aS'root://cms-xrd-global.cern.ch///store/user/ratramon/HNLGen_ntuples/private_BToDMuN_HalfMu_Halfe_mass3p0_ctau184p0/step4_nj540.root\n'
p805
aS'root://cms-xrd-global.cern.ch///store/user/ratramon/HNLGen_ntuples/private_BToDMuN_HalfMu_Halfe_mass3p0_ctau184p0/step4_nj541.root\n'
p806
aS'root://cms-xrd-global.cern.ch///store/user/ratramon/HNLGen_ntuples/private_BToDMuN_HalfMu_Halfe_mass3p0_ctau184p0/step4_nj542.root\n'
p807
aS'root://cms-xrd-global.cern.ch///store/user/ratramon/HNLGen_ntuples/private_BToDMuN_HalfMu_Halfe_mass3p0_ctau184p0/step4_nj543.root\n'
p808
aS'root://cms-xrd-global.cern.ch///store/user/ratramon/HNLGen_ntuples/private_BToDMuN_HalfMu_Halfe_mass3p0_ctau184p0/step4_nj544.root\n'
p809
aS'root://cms-xrd-global.cern.ch///store/user/ratramon/HNLGen_ntuples/private_BToDMuN_HalfMu_Halfe_mass3p0_ctau184p0/step4_nj545.root\n'
p810
aS'root://cms-xrd-global.cern.ch///store/user/ratramon/HNLGen_ntuples/private_BToDMuN_HalfMu_Halfe_mass3p0_ctau184p0/step4_nj546.root\n'
p811
aS'root://cms-xrd-global.cern.ch///store/user/ratramon/HNLGen_ntuples/private_BToDMuN_HalfMu_Halfe_mass3p0_ctau184p0/step4_nj547.root\n'
p812
aS'root://cms-xrd-global.cern.ch///store/user/ratramon/HNLGen_ntuples/private_BToDMuN_HalfMu_Halfe_mass3p0_ctau184p0/step4_nj548.root\n'
p813
aS'root://cms-xrd-global.cern.ch///store/user/ratramon/HNLGen_ntuples/private_BToDMuN_HalfMu_Halfe_mass3p0_ctau184p0/step4_nj549.root\n'
p814
aS'root://cms-xrd-global.cern.ch///store/user/ratramon/HNLGen_ntuples/private_BToDMuN_HalfMu_Halfe_mass3p0_ctau184p0/step4_nj55.root\n'
p815
aS'root://cms-xrd-global.cern.ch///store/user/ratramon/HNLGen_ntuples/private_BToDMuN_HalfMu_Halfe_mass3p0_ctau184p0/step4_nj550.root\n'
p816
aS'root://cms-xrd-global.cern.ch///store/user/ratramon/HNLGen_ntuples/private_BToDMuN_HalfMu_Halfe_mass3p0_ctau184p0/step4_nj551.root\n'
p817
aS'root://cms-xrd-global.cern.ch///store/user/ratramon/HNLGen_ntuples/private_BToDMuN_HalfMu_Halfe_mass3p0_ctau184p0/step4_nj552.root\n'
p818
aS'root://cms-xrd-global.cern.ch///store/user/ratramon/HNLGen_ntuples/private_BToDMuN_HalfMu_Halfe_mass3p0_ctau184p0/step4_nj553.root\n'
p819
aS'root://cms-xrd-global.cern.ch///store/user/ratramon/HNLGen_ntuples/private_BToDMuN_HalfMu_Halfe_mass3p0_ctau184p0/step4_nj554.root\n'
p820
aS'root://cms-xrd-global.cern.ch///store/user/ratramon/HNLGen_ntuples/private_BToDMuN_HalfMu_Halfe_mass3p0_ctau184p0/step4_nj555.root\n'
p821
aS'root://cms-xrd-global.cern.ch///store/user/ratramon/HNLGen_ntuples/private_BToDMuN_HalfMu_Halfe_mass3p0_ctau184p0/step4_nj556.root\n'
p822
aS'root://cms-xrd-global.cern.ch///store/user/ratramon/HNLGen_ntuples/private_BToDMuN_HalfMu_Halfe_mass3p0_ctau184p0/step4_nj557.root\n'
p823
aS'root://cms-xrd-global.cern.ch///store/user/ratramon/HNLGen_ntuples/private_BToDMuN_HalfMu_Halfe_mass3p0_ctau184p0/step4_nj558.root\n'
p824
aS'root://cms-xrd-global.cern.ch///store/user/ratramon/HNLGen_ntuples/private_BToDMuN_HalfMu_Halfe_mass3p0_ctau184p0/step4_nj559.root\n'
p825
aS'root://cms-xrd-global.cern.ch///store/user/ratramon/HNLGen_ntuples/private_BToDMuN_HalfMu_Halfe_mass3p0_ctau184p0/step4_nj56.root\n'
p826
aS'root://cms-xrd-global.cern.ch///store/user/ratramon/HNLGen_ntuples/private_BToDMuN_HalfMu_Halfe_mass3p0_ctau184p0/step4_nj560.root\n'
p827
aS'root://cms-xrd-global.cern.ch///store/user/ratramon/HNLGen_ntuples/private_BToDMuN_HalfMu_Halfe_mass3p0_ctau184p0/step4_nj561.root\n'
p828
aS'root://cms-xrd-global.cern.ch///store/user/ratramon/HNLGen_ntuples/private_BToDMuN_HalfMu_Halfe_mass3p0_ctau184p0/step4_nj562.root\n'
p829
aS'root://cms-xrd-global.cern.ch///store/user/ratramon/HNLGen_ntuples/private_BToDMuN_HalfMu_Halfe_mass3p0_ctau184p0/step4_nj563.root\n'
p830
aS'root://cms-xrd-global.cern.ch///store/user/ratramon/HNLGen_ntuples/private_BToDMuN_HalfMu_Halfe_mass3p0_ctau184p0/step4_nj564.root\n'
p831
aS'root://cms-xrd-global.cern.ch///store/user/ratramon/HNLGen_ntuples/private_BToDMuN_HalfMu_Halfe_mass3p0_ctau184p0/step4_nj565.root\n'
p832
aS'root://cms-xrd-global.cern.ch///store/user/ratramon/HNLGen_ntuples/private_BToDMuN_HalfMu_Halfe_mass3p0_ctau184p0/step4_nj566.root\n'
p833
aS'root://cms-xrd-global.cern.ch///store/user/ratramon/HNLGen_ntuples/private_BToDMuN_HalfMu_Halfe_mass3p0_ctau184p0/step4_nj567.root\n'
p834
aS'root://cms-xrd-global.cern.ch///store/user/ratramon/HNLGen_ntuples/private_BToDMuN_HalfMu_Halfe_mass3p0_ctau184p0/step4_nj568.root\n'
p835
aS'root://cms-xrd-global.cern.ch///store/user/ratramon/HNLGen_ntuples/private_BToDMuN_HalfMu_Halfe_mass3p0_ctau184p0/step4_nj569.root\n'
p836
aS'root://cms-xrd-global.cern.ch///store/user/ratramon/HNLGen_ntuples/private_BToDMuN_HalfMu_Halfe_mass3p0_ctau184p0/step4_nj57.root\n'
p837
aS'root://cms-xrd-global.cern.ch///store/user/ratramon/HNLGen_ntuples/private_BToDMuN_HalfMu_Halfe_mass3p0_ctau184p0/step4_nj570.root\n'
p838
aS'root://cms-xrd-global.cern.ch///store/user/ratramon/HNLGen_ntuples/private_BToDMuN_HalfMu_Halfe_mass3p0_ctau184p0/step4_nj571.root\n'
p839
aS'root://cms-xrd-global.cern.ch///store/user/ratramon/HNLGen_ntuples/private_BToDMuN_HalfMu_Halfe_mass3p0_ctau184p0/step4_nj572.root\n'
p840
aS'root://cms-xrd-global.cern.ch///store/user/ratramon/HNLGen_ntuples/private_BToDMuN_HalfMu_Halfe_mass3p0_ctau184p0/step4_nj573.root\n'
p841
aS'root://cms-xrd-global.cern.ch///store/user/ratramon/HNLGen_ntuples/private_BToDMuN_HalfMu_Halfe_mass3p0_ctau184p0/step4_nj574.root\n'
p842
aS'root://cms-xrd-global.cern.ch///store/user/ratramon/HNLGen_ntuples/private_BToDMuN_HalfMu_Halfe_mass3p0_ctau184p0/step4_nj575.root\n'
p843
aS'root://cms-xrd-global.cern.ch///store/user/ratramon/HNLGen_ntuples/private_BToDMuN_HalfMu_Halfe_mass3p0_ctau184p0/step4_nj576.root\n'
p844
aS'root://cms-xrd-global.cern.ch///store/user/ratramon/HNLGen_ntuples/private_BToDMuN_HalfMu_Halfe_mass3p0_ctau184p0/step4_nj577.root\n'
p845
aS'root://cms-xrd-global.cern.ch///store/user/ratramon/HNLGen_ntuples/private_BToDMuN_HalfMu_Halfe_mass3p0_ctau184p0/step4_nj578.root\n'
p846
aS'root://cms-xrd-global.cern.ch///store/user/ratramon/HNLGen_ntuples/private_BToDMuN_HalfMu_Halfe_mass3p0_ctau184p0/step4_nj579.root\n'
p847
aS'root://cms-xrd-global.cern.ch///store/user/ratramon/HNLGen_ntuples/private_BToDMuN_HalfMu_Halfe_mass3p0_ctau184p0/step4_nj58.root\n'
p848
aS'root://cms-xrd-global.cern.ch///store/user/ratramon/HNLGen_ntuples/private_BToDMuN_HalfMu_Halfe_mass3p0_ctau184p0/step4_nj580.root\n'
p849
aS'root://cms-xrd-global.cern.ch///store/user/ratramon/HNLGen_ntuples/private_BToDMuN_HalfMu_Halfe_mass3p0_ctau184p0/step4_nj581.root\n'
p850
aS'root://cms-xrd-global.cern.ch///store/user/ratramon/HNLGen_ntuples/private_BToDMuN_HalfMu_Halfe_mass3p0_ctau184p0/step4_nj582.root\n'
p851
aS'root://cms-xrd-global.cern.ch///store/user/ratramon/HNLGen_ntuples/private_BToDMuN_HalfMu_Halfe_mass3p0_ctau184p0/step4_nj583.root\n'
p852
aS'root://cms-xrd-global.cern.ch///store/user/ratramon/HNLGen_ntuples/private_BToDMuN_HalfMu_Halfe_mass3p0_ctau184p0/step4_nj584.root\n'
p853
aS'root://cms-xrd-global.cern.ch///store/user/ratramon/HNLGen_ntuples/private_BToDMuN_HalfMu_Halfe_mass3p0_ctau184p0/step4_nj585.root\n'
p854
aS'root://cms-xrd-global.cern.ch///store/user/ratramon/HNLGen_ntuples/private_BToDMuN_HalfMu_Halfe_mass3p0_ctau184p0/step4_nj586.root\n'
p855
aS'root://cms-xrd-global.cern.ch///store/user/ratramon/HNLGen_ntuples/private_BToDMuN_HalfMu_Halfe_mass3p0_ctau184p0/step4_nj587.root\n'
p856
aS'root://cms-xrd-global.cern.ch///store/user/ratramon/HNLGen_ntuples/private_BToDMuN_HalfMu_Halfe_mass3p0_ctau184p0/step4_nj588.root\n'
p857
aS'root://cms-xrd-global.cern.ch///store/user/ratramon/HNLGen_ntuples/private_BToDMuN_HalfMu_Halfe_mass3p0_ctau184p0/step4_nj589.root\n'
p858
aS'root://cms-xrd-global.cern.ch///store/user/ratramon/HNLGen_ntuples/private_BToDMuN_HalfMu_Halfe_mass3p0_ctau184p0/step4_nj59.root\n'
p859
aS'root://cms-xrd-global.cern.ch///store/user/ratramon/HNLGen_ntuples/private_BToDMuN_HalfMu_Halfe_mass3p0_ctau184p0/step4_nj590.root\n'
p860
aS'root://cms-xrd-global.cern.ch///store/user/ratramon/HNLGen_ntuples/private_BToDMuN_HalfMu_Halfe_mass3p0_ctau184p0/step4_nj591.root\n'
p861
aS'root://cms-xrd-global.cern.ch///store/user/ratramon/HNLGen_ntuples/private_BToDMuN_HalfMu_Halfe_mass3p0_ctau184p0/step4_nj593.root\n'
p862
aS'root://cms-xrd-global.cern.ch///store/user/ratramon/HNLGen_ntuples/private_BToDMuN_HalfMu_Halfe_mass3p0_ctau184p0/step4_nj594.root\n'
p863
aS'root://cms-xrd-global.cern.ch///store/user/ratramon/HNLGen_ntuples/private_BToDMuN_HalfMu_Halfe_mass3p0_ctau184p0/step4_nj595.root\n'
p864
aS'root://cms-xrd-global.cern.ch///store/user/ratramon/HNLGen_ntuples/private_BToDMuN_HalfMu_Halfe_mass3p0_ctau184p0/step4_nj596.root\n'
p865
aS'root://cms-xrd-global.cern.ch///store/user/ratramon/HNLGen_ntuples/private_BToDMuN_HalfMu_Halfe_mass3p0_ctau184p0/step4_nj597.root\n'
p866
aS'root://cms-xrd-global.cern.ch///store/user/ratramon/HNLGen_ntuples/private_BToDMuN_HalfMu_Halfe_mass3p0_ctau184p0/step4_nj598.root\n'
p867
aS'root://cms-xrd-global.cern.ch///store/user/ratramon/HNLGen_ntuples/private_BToDMuN_HalfMu_Halfe_mass3p0_ctau184p0/step4_nj599.root\n'
p868
aS'root://cms-xrd-global.cern.ch///store/user/ratramon/HNLGen_ntuples/private_BToDMuN_HalfMu_Halfe_mass3p0_ctau184p0/step4_nj6.root\n'
p869
aS'root://cms-xrd-global.cern.ch///store/user/ratramon/HNLGen_ntuples/private_BToDMuN_HalfMu_Halfe_mass3p0_ctau184p0/step4_nj60.root\n'
p870
aS'root://cms-xrd-global.cern.ch///store/user/ratramon/HNLGen_ntuples/private_BToDMuN_HalfMu_Halfe_mass3p0_ctau184p0/step4_nj600.root\n'
p871
aS'root://cms-xrd-global.cern.ch///store/user/ratramon/HNLGen_ntuples/private_BToDMuN_HalfMu_Halfe_mass3p0_ctau184p0/step4_nj601.root\n'
p872
aS'root://cms-xrd-global.cern.ch///store/user/ratramon/HNLGen_ntuples/private_BToDMuN_HalfMu_Halfe_mass3p0_ctau184p0/step4_nj602.root\n'
p873
aS'root://cms-xrd-global.cern.ch///store/user/ratramon/HNLGen_ntuples/private_BToDMuN_HalfMu_Halfe_mass3p0_ctau184p0/step4_nj603.root\n'
p874
aS'root://cms-xrd-global.cern.ch///store/user/ratramon/HNLGen_ntuples/private_BToDMuN_HalfMu_Halfe_mass3p0_ctau184p0/step4_nj604.root\n'
p875
aS'root://cms-xrd-global.cern.ch///store/user/ratramon/HNLGen_ntuples/private_BToDMuN_HalfMu_Halfe_mass3p0_ctau184p0/step4_nj605.root\n'
p876
aS'root://cms-xrd-global.cern.ch///store/user/ratramon/HNLGen_ntuples/private_BToDMuN_HalfMu_Halfe_mass3p0_ctau184p0/step4_nj606.root\n'
p877
aS'root://cms-xrd-global.cern.ch///store/user/ratramon/HNLGen_ntuples/private_BToDMuN_HalfMu_Halfe_mass3p0_ctau184p0/step4_nj607.root\n'
p878
aS'root://cms-xrd-global.cern.ch///store/user/ratramon/HNLGen_ntuples/private_BToDMuN_HalfMu_Halfe_mass3p0_ctau184p0/step4_nj608.root\n'
p879
aS'root://cms-xrd-global.cern.ch///store/user/ratramon/HNLGen_ntuples/private_BToDMuN_HalfMu_Halfe_mass3p0_ctau184p0/step4_nj609.root\n'
p880
aS'root://cms-xrd-global.cern.ch///store/user/ratramon/HNLGen_ntuples/private_BToDMuN_HalfMu_Halfe_mass3p0_ctau184p0/step4_nj61.root\n'
p881
aS'root://cms-xrd-global.cern.ch///store/user/ratramon/HNLGen_ntuples/private_BToDMuN_HalfMu_Halfe_mass3p0_ctau184p0/step4_nj610.root\n'
p882
aS'root://cms-xrd-global.cern.ch///store/user/ratramon/HNLGen_ntuples/private_BToDMuN_HalfMu_Halfe_mass3p0_ctau184p0/step4_nj611.root\n'
p883
aS'root://cms-xrd-global.cern.ch///store/user/ratramon/HNLGen_ntuples/private_BToDMuN_HalfMu_Halfe_mass3p0_ctau184p0/step4_nj612.root\n'
p884
aS'root://cms-xrd-global.cern.ch///store/user/ratramon/HNLGen_ntuples/private_BToDMuN_HalfMu_Halfe_mass3p0_ctau184p0/step4_nj613.root\n'
p885
aS'root://cms-xrd-global.cern.ch///store/user/ratramon/HNLGen_ntuples/private_BToDMuN_HalfMu_Halfe_mass3p0_ctau184p0/step4_nj614.root\n'
p886
aS'root://cms-xrd-global.cern.ch///store/user/ratramon/HNLGen_ntuples/private_BToDMuN_HalfMu_Halfe_mass3p0_ctau184p0/step4_nj615.root\n'
p887
aS'root://cms-xrd-global.cern.ch///store/user/ratramon/HNLGen_ntuples/private_BToDMuN_HalfMu_Halfe_mass3p0_ctau184p0/step4_nj616.root\n'
p888
aS'root://cms-xrd-global.cern.ch///store/user/ratramon/HNLGen_ntuples/private_BToDMuN_HalfMu_Halfe_mass3p0_ctau184p0/step4_nj617.root\n'
p889
aS'root://cms-xrd-global.cern.ch///store/user/ratramon/HNLGen_ntuples/private_BToDMuN_HalfMu_Halfe_mass3p0_ctau184p0/step4_nj618.root\n'
p890
aS'root://cms-xrd-global.cern.ch///store/user/ratramon/HNLGen_ntuples/private_BToDMuN_HalfMu_Halfe_mass3p0_ctau184p0/step4_nj619.root\n'
p891
aS'root://cms-xrd-global.cern.ch///store/user/ratramon/HNLGen_ntuples/private_BToDMuN_HalfMu_Halfe_mass3p0_ctau184p0/step4_nj620.root\n'
p892
aS'root://cms-xrd-global.cern.ch///store/user/ratramon/HNLGen_ntuples/private_BToDMuN_HalfMu_Halfe_mass3p0_ctau184p0/step4_nj621.root\n'
p893
aS'root://cms-xrd-global.cern.ch///store/user/ratramon/HNLGen_ntuples/private_BToDMuN_HalfMu_Halfe_mass3p0_ctau184p0/step4_nj622.root\n'
p894
aS'root://cms-xrd-global.cern.ch///store/user/ratramon/HNLGen_ntuples/private_BToDMuN_HalfMu_Halfe_mass3p0_ctau184p0/step4_nj623.root\n'
p895
aS'root://cms-xrd-global.cern.ch///store/user/ratramon/HNLGen_ntuples/private_BToDMuN_HalfMu_Halfe_mass3p0_ctau184p0/step4_nj624.root\n'
p896
aS'root://cms-xrd-global.cern.ch///store/user/ratramon/HNLGen_ntuples/private_BToDMuN_HalfMu_Halfe_mass3p0_ctau184p0/step4_nj625.root\n'
p897
aS'root://cms-xrd-global.cern.ch///store/user/ratramon/HNLGen_ntuples/private_BToDMuN_HalfMu_Halfe_mass3p0_ctau184p0/step4_nj626.root\n'
p898
aS'root://cms-xrd-global.cern.ch///store/user/ratramon/HNLGen_ntuples/private_BToDMuN_HalfMu_Halfe_mass3p0_ctau184p0/step4_nj627.root\n'
p899
aS'root://cms-xrd-global.cern.ch///store/user/ratramon/HNLGen_ntuples/private_BToDMuN_HalfMu_Halfe_mass3p0_ctau184p0/step4_nj628.root\n'
p900
aS'root://cms-xrd-global.cern.ch///store/user/ratramon/HNLGen_ntuples/private_BToDMuN_HalfMu_Halfe_mass3p0_ctau184p0/step4_nj629.root\n'
p901
aS'root://cms-xrd-global.cern.ch///store/user/ratramon/HNLGen_ntuples/private_BToDMuN_HalfMu_Halfe_mass3p0_ctau184p0/step4_nj63.root\n'
p902
aS'root://cms-xrd-global.cern.ch///store/user/ratramon/HNLGen_ntuples/private_BToDMuN_HalfMu_Halfe_mass3p0_ctau184p0/step4_nj630.root\n'
p903
aS'root://cms-xrd-global.cern.ch///store/user/ratramon/HNLGen_ntuples/private_BToDMuN_HalfMu_Halfe_mass3p0_ctau184p0/step4_nj631.root\n'
p904
aS'root://cms-xrd-global.cern.ch///store/user/ratramon/HNLGen_ntuples/private_BToDMuN_HalfMu_Halfe_mass3p0_ctau184p0/step4_nj632.root\n'
p905
aS'root://cms-xrd-global.cern.ch///store/user/ratramon/HNLGen_ntuples/private_BToDMuN_HalfMu_Halfe_mass3p0_ctau184p0/step4_nj633.root\n'
p906
aS'root://cms-xrd-global.cern.ch///store/user/ratramon/HNLGen_ntuples/private_BToDMuN_HalfMu_Halfe_mass3p0_ctau184p0/step4_nj634.root\n'
p907
aS'root://cms-xrd-global.cern.ch///store/user/ratramon/HNLGen_ntuples/private_BToDMuN_HalfMu_Halfe_mass3p0_ctau184p0/step4_nj635.root\n'
p908
aS'root://cms-xrd-global.cern.ch///store/user/ratramon/HNLGen_ntuples/private_BToDMuN_HalfMu_Halfe_mass3p0_ctau184p0/step4_nj636.root\n'
p909
aS'root://cms-xrd-global.cern.ch///store/user/ratramon/HNLGen_ntuples/private_BToDMuN_HalfMu_Halfe_mass3p0_ctau184p0/step4_nj637.root\n'
p910
aS'root://cms-xrd-global.cern.ch///store/user/ratramon/HNLGen_ntuples/private_BToDMuN_HalfMu_Halfe_mass3p0_ctau184p0/step4_nj638.root\n'
p911
aS'root://cms-xrd-global.cern.ch///store/user/ratramon/HNLGen_ntuples/private_BToDMuN_HalfMu_Halfe_mass3p0_ctau184p0/step4_nj639.root\n'
p912
aS'root://cms-xrd-global.cern.ch///store/user/ratramon/HNLGen_ntuples/private_BToDMuN_HalfMu_Halfe_mass3p0_ctau184p0/step4_nj64.root\n'
p913
aS'root://cms-xrd-global.cern.ch///store/user/ratramon/HNLGen_ntuples/private_BToDMuN_HalfMu_Halfe_mass3p0_ctau184p0/step4_nj640.root\n'
p914
aS'root://cms-xrd-global.cern.ch///store/user/ratramon/HNLGen_ntuples/private_BToDMuN_HalfMu_Halfe_mass3p0_ctau184p0/step4_nj641.root\n'
p915
aS'root://cms-xrd-global.cern.ch///store/user/ratramon/HNLGen_ntuples/private_BToDMuN_HalfMu_Halfe_mass3p0_ctau184p0/step4_nj642.root\n'
p916
aS'root://cms-xrd-global.cern.ch///store/user/ratramon/HNLGen_ntuples/private_BToDMuN_HalfMu_Halfe_mass3p0_ctau184p0/step4_nj643.root\n'
p917
aS'root://cms-xrd-global.cern.ch///store/user/ratramon/HNLGen_ntuples/private_BToDMuN_HalfMu_Halfe_mass3p0_ctau184p0/step4_nj644.root\n'
p918
aS'root://cms-xrd-global.cern.ch///store/user/ratramon/HNLGen_ntuples/private_BToDMuN_HalfMu_Halfe_mass3p0_ctau184p0/step4_nj645.root\n'
p919
aS'root://cms-xrd-global.cern.ch///store/user/ratramon/HNLGen_ntuples/private_BToDMuN_HalfMu_Halfe_mass3p0_ctau184p0/step4_nj646.root\n'
p920
aS'root://cms-xrd-global.cern.ch///store/user/ratramon/HNLGen_ntuples/private_BToDMuN_HalfMu_Halfe_mass3p0_ctau184p0/step4_nj647.root\n'
p921
aS'root://cms-xrd-global.cern.ch///store/user/ratramon/HNLGen_ntuples/private_BToDMuN_HalfMu_Halfe_mass3p0_ctau184p0/step4_nj648.root\n'
p922
aS'root://cms-xrd-global.cern.ch///store/user/ratramon/HNLGen_ntuples/private_BToDMuN_HalfMu_Halfe_mass3p0_ctau184p0/step4_nj649.root\n'
p923
aS'root://cms-xrd-global.cern.ch///store/user/ratramon/HNLGen_ntuples/private_BToDMuN_HalfMu_Halfe_mass3p0_ctau184p0/step4_nj65.root\n'
p924
aS'root://cms-xrd-global.cern.ch///store/user/ratramon/HNLGen_ntuples/private_BToDMuN_HalfMu_Halfe_mass3p0_ctau184p0/step4_nj650.root\n'
p925
aS'root://cms-xrd-global.cern.ch///store/user/ratramon/HNLGen_ntuples/private_BToDMuN_HalfMu_Halfe_mass3p0_ctau184p0/step4_nj651.root\n'
p926
aS'root://cms-xrd-global.cern.ch///store/user/ratramon/HNLGen_ntuples/private_BToDMuN_HalfMu_Halfe_mass3p0_ctau184p0/step4_nj652.root\n'
p927
aS'root://cms-xrd-global.cern.ch///store/user/ratramon/HNLGen_ntuples/private_BToDMuN_HalfMu_Halfe_mass3p0_ctau184p0/step4_nj653.root\n'
p928
aS'root://cms-xrd-global.cern.ch///store/user/ratramon/HNLGen_ntuples/private_BToDMuN_HalfMu_Halfe_mass3p0_ctau184p0/step4_nj654.root\n'
p929
aS'root://cms-xrd-global.cern.ch///store/user/ratramon/HNLGen_ntuples/private_BToDMuN_HalfMu_Halfe_mass3p0_ctau184p0/step4_nj655.root\n'
p930
aS'root://cms-xrd-global.cern.ch///store/user/ratramon/HNLGen_ntuples/private_BToDMuN_HalfMu_Halfe_mass3p0_ctau184p0/step4_nj656.root\n'
p931
aS'root://cms-xrd-global.cern.ch///store/user/ratramon/HNLGen_ntuples/private_BToDMuN_HalfMu_Halfe_mass3p0_ctau184p0/step4_nj657.root\n'
p932
aS'root://cms-xrd-global.cern.ch///store/user/ratramon/HNLGen_ntuples/private_BToDMuN_HalfMu_Halfe_mass3p0_ctau184p0/step4_nj658.root\n'
p933
aS'root://cms-xrd-global.cern.ch///store/user/ratramon/HNLGen_ntuples/private_BToDMuN_HalfMu_Halfe_mass3p0_ctau184p0/step4_nj659.root\n'
p934
aS'root://cms-xrd-global.cern.ch///store/user/ratramon/HNLGen_ntuples/private_BToDMuN_HalfMu_Halfe_mass3p0_ctau184p0/step4_nj66.root\n'
p935
aS'root://cms-xrd-global.cern.ch///store/user/ratramon/HNLGen_ntuples/private_BToDMuN_HalfMu_Halfe_mass3p0_ctau184p0/step4_nj660.root\n'
p936
aS'root://cms-xrd-global.cern.ch///store/user/ratramon/HNLGen_ntuples/private_BToDMuN_HalfMu_Halfe_mass3p0_ctau184p0/step4_nj661.root\n'
p937
aS'root://cms-xrd-global.cern.ch///store/user/ratramon/HNLGen_ntuples/private_BToDMuN_HalfMu_Halfe_mass3p0_ctau184p0/step4_nj662.root\n'
p938
aS'root://cms-xrd-global.cern.ch///store/user/ratramon/HNLGen_ntuples/private_BToDMuN_HalfMu_Halfe_mass3p0_ctau184p0/step4_nj663.root\n'
p939
aS'root://cms-xrd-global.cern.ch///store/user/ratramon/HNLGen_ntuples/private_BToDMuN_HalfMu_Halfe_mass3p0_ctau184p0/step4_nj665.root\n'
p940
aS'root://cms-xrd-global.cern.ch///store/user/ratramon/HNLGen_ntuples/private_BToDMuN_HalfMu_Halfe_mass3p0_ctau184p0/step4_nj666.root\n'
p941
aS'root://cms-xrd-global.cern.ch///store/user/ratramon/HNLGen_ntuples/private_BToDMuN_HalfMu_Halfe_mass3p0_ctau184p0/step4_nj667.root\n'
p942
aS'root://cms-xrd-global.cern.ch///store/user/ratramon/HNLGen_ntuples/private_BToDMuN_HalfMu_Halfe_mass3p0_ctau184p0/step4_nj668.root\n'
p943
aS'root://cms-xrd-global.cern.ch///store/user/ratramon/HNLGen_ntuples/private_BToDMuN_HalfMu_Halfe_mass3p0_ctau184p0/step4_nj669.root\n'
p944
aS'root://cms-xrd-global.cern.ch///store/user/ratramon/HNLGen_ntuples/private_BToDMuN_HalfMu_Halfe_mass3p0_ctau184p0/step4_nj67.root\n'
p945
aS'root://cms-xrd-global.cern.ch///store/user/ratramon/HNLGen_ntuples/private_BToDMuN_HalfMu_Halfe_mass3p0_ctau184p0/step4_nj670.root\n'
p946
aS'root://cms-xrd-global.cern.ch///store/user/ratramon/HNLGen_ntuples/private_BToDMuN_HalfMu_Halfe_mass3p0_ctau184p0/step4_nj671.root\n'
p947
aS'root://cms-xrd-global.cern.ch///store/user/ratramon/HNLGen_ntuples/private_BToDMuN_HalfMu_Halfe_mass3p0_ctau184p0/step4_nj672.root\n'
p948
aS'root://cms-xrd-global.cern.ch///store/user/ratramon/HNLGen_ntuples/private_BToDMuN_HalfMu_Halfe_mass3p0_ctau184p0/step4_nj673.root\n'
p949
aS'root://cms-xrd-global.cern.ch///store/user/ratramon/HNLGen_ntuples/private_BToDMuN_HalfMu_Halfe_mass3p0_ctau184p0/step4_nj674.root\n'
p950
aS'root://cms-xrd-global.cern.ch///store/user/ratramon/HNLGen_ntuples/private_BToDMuN_HalfMu_Halfe_mass3p0_ctau184p0/step4_nj675.root\n'
p951
aS'root://cms-xrd-global.cern.ch///store/user/ratramon/HNLGen_ntuples/private_BToDMuN_HalfMu_Halfe_mass3p0_ctau184p0/step4_nj676.root\n'
p952
aS'root://cms-xrd-global.cern.ch///store/user/ratramon/HNLGen_ntuples/private_BToDMuN_HalfMu_Halfe_mass3p0_ctau184p0/step4_nj677.root\n'
p953
aS'root://cms-xrd-global.cern.ch///store/user/ratramon/HNLGen_ntuples/private_BToDMuN_HalfMu_Halfe_mass3p0_ctau184p0/step4_nj678.root\n'
p954
aS'root://cms-xrd-global.cern.ch///store/user/ratramon/HNLGen_ntuples/private_BToDMuN_HalfMu_Halfe_mass3p0_ctau184p0/step4_nj679.root\n'
p955
aS'root://cms-xrd-global.cern.ch///store/user/ratramon/HNLGen_ntuples/private_BToDMuN_HalfMu_Halfe_mass3p0_ctau184p0/step4_nj68.root\n'
p956
aS'root://cms-xrd-global.cern.ch///store/user/ratramon/HNLGen_ntuples/private_BToDMuN_HalfMu_Halfe_mass3p0_ctau184p0/step4_nj680.root\n'
p957
aS'root://cms-xrd-global.cern.ch///store/user/ratramon/HNLGen_ntuples/private_BToDMuN_HalfMu_Halfe_mass3p0_ctau184p0/step4_nj681.root\n'
p958
aS'root://cms-xrd-global.cern.ch///store/user/ratramon/HNLGen_ntuples/private_BToDMuN_HalfMu_Halfe_mass3p0_ctau184p0/step4_nj682.root\n'
p959
aS'root://cms-xrd-global.cern.ch///store/user/ratramon/HNLGen_ntuples/private_BToDMuN_HalfMu_Halfe_mass3p0_ctau184p0/step4_nj683.root\n'
p960
aS'root://cms-xrd-global.cern.ch///store/user/ratramon/HNLGen_ntuples/private_BToDMuN_HalfMu_Halfe_mass3p0_ctau184p0/step4_nj684.root\n'
p961
aS'root://cms-xrd-global.cern.ch///store/user/ratramon/HNLGen_ntuples/private_BToDMuN_HalfMu_Halfe_mass3p0_ctau184p0/step4_nj685.root\n'
p962
aS'root://cms-xrd-global.cern.ch///store/user/ratramon/HNLGen_ntuples/private_BToDMuN_HalfMu_Halfe_mass3p0_ctau184p0/step4_nj686.root\n'
p963
aS'root://cms-xrd-global.cern.ch///store/user/ratramon/HNLGen_ntuples/private_BToDMuN_HalfMu_Halfe_mass3p0_ctau184p0/step4_nj687.root\n'
p964
aS'root://cms-xrd-global.cern.ch///store/user/ratramon/HNLGen_ntuples/private_BToDMuN_HalfMu_Halfe_mass3p0_ctau184p0/step4_nj688.root\n'
p965
aS'root://cms-xrd-global.cern.ch///store/user/ratramon/HNLGen_ntuples/private_BToDMuN_HalfMu_Halfe_mass3p0_ctau184p0/step4_nj689.root\n'
p966
aS'root://cms-xrd-global.cern.ch///store/user/ratramon/HNLGen_ntuples/private_BToDMuN_HalfMu_Halfe_mass3p0_ctau184p0/step4_nj69.root\n'
p967
aS'root://cms-xrd-global.cern.ch///store/user/ratramon/HNLGen_ntuples/private_BToDMuN_HalfMu_Halfe_mass3p0_ctau184p0/step4_nj690.root\n'
p968
aS'root://cms-xrd-global.cern.ch///store/user/ratramon/HNLGen_ntuples/private_BToDMuN_HalfMu_Halfe_mass3p0_ctau184p0/step4_nj691.root\n'
p969
aS'root://cms-xrd-global.cern.ch///store/user/ratramon/HNLGen_ntuples/private_BToDMuN_HalfMu_Halfe_mass3p0_ctau184p0/step4_nj692.root\n'
p970
aS'root://cms-xrd-global.cern.ch///store/user/ratramon/HNLGen_ntuples/private_BToDMuN_HalfMu_Halfe_mass3p0_ctau184p0/step4_nj693.root\n'
p971
aS'root://cms-xrd-global.cern.ch///store/user/ratramon/HNLGen_ntuples/private_BToDMuN_HalfMu_Halfe_mass3p0_ctau184p0/step4_nj694.root\n'
p972
aS'root://cms-xrd-global.cern.ch///store/user/ratramon/HNLGen_ntuples/private_BToDMuN_HalfMu_Halfe_mass3p0_ctau184p0/step4_nj695.root\n'
p973
aS'root://cms-xrd-global.cern.ch///store/user/ratramon/HNLGen_ntuples/private_BToDMuN_HalfMu_Halfe_mass3p0_ctau184p0/step4_nj696.root\n'
p974
aS'root://cms-xrd-global.cern.ch///store/user/ratramon/HNLGen_ntuples/private_BToDMuN_HalfMu_Halfe_mass3p0_ctau184p0/step4_nj697.root\n'
p975
aS'root://cms-xrd-global.cern.ch///store/user/ratramon/HNLGen_ntuples/private_BToDMuN_HalfMu_Halfe_mass3p0_ctau184p0/step4_nj698.root\n'
p976
aS'root://cms-xrd-global.cern.ch///store/user/ratramon/HNLGen_ntuples/private_BToDMuN_HalfMu_Halfe_mass3p0_ctau184p0/step4_nj699.root\n'
p977
aS'root://cms-xrd-global.cern.ch///store/user/ratramon/HNLGen_ntuples/private_BToDMuN_HalfMu_Halfe_mass3p0_ctau184p0/step4_nj7.root\n'
p978
aS'root://cms-xrd-global.cern.ch///store/user/ratramon/HNLGen_ntuples/private_BToDMuN_HalfMu_Halfe_mass3p0_ctau184p0/step4_nj70.root\n'
p979
aS'root://cms-xrd-global.cern.ch///store/user/ratramon/HNLGen_ntuples/private_BToDMuN_HalfMu_Halfe_mass3p0_ctau184p0/step4_nj700.root\n'
p980
aS'root://cms-xrd-global.cern.ch///store/user/ratramon/HNLGen_ntuples/private_BToDMuN_HalfMu_Halfe_mass3p0_ctau184p0/step4_nj701.root\n'
p981
aS'root://cms-xrd-global.cern.ch///store/user/ratramon/HNLGen_ntuples/private_BToDMuN_HalfMu_Halfe_mass3p0_ctau184p0/step4_nj702.root\n'
p982
aS'root://cms-xrd-global.cern.ch///store/user/ratramon/HNLGen_ntuples/private_BToDMuN_HalfMu_Halfe_mass3p0_ctau184p0/step4_nj703.root\n'
p983
aS'root://cms-xrd-global.cern.ch///store/user/ratramon/HNLGen_ntuples/private_BToDMuN_HalfMu_Halfe_mass3p0_ctau184p0/step4_nj704.root\n'
p984
aS'root://cms-xrd-global.cern.ch///store/user/ratramon/HNLGen_ntuples/private_BToDMuN_HalfMu_Halfe_mass3p0_ctau184p0/step4_nj705.root\n'
p985
aS'root://cms-xrd-global.cern.ch///store/user/ratramon/HNLGen_ntuples/private_BToDMuN_HalfMu_Halfe_mass3p0_ctau184p0/step4_nj706.root\n'
p986
aS'root://cms-xrd-global.cern.ch///store/user/ratramon/HNLGen_ntuples/private_BToDMuN_HalfMu_Halfe_mass3p0_ctau184p0/step4_nj707.root\n'
p987
aS'root://cms-xrd-global.cern.ch///store/user/ratramon/HNLGen_ntuples/private_BToDMuN_HalfMu_Halfe_mass3p0_ctau184p0/step4_nj708.root\n'
p988
aS'root://cms-xrd-global.cern.ch///store/user/ratramon/HNLGen_ntuples/private_BToDMuN_HalfMu_Halfe_mass3p0_ctau184p0/step4_nj709.root\n'
p989
aS'root://cms-xrd-global.cern.ch///store/user/ratramon/HNLGen_ntuples/private_BToDMuN_HalfMu_Halfe_mass3p0_ctau184p0/step4_nj71.root\n'
p990
aS'root://cms-xrd-global.cern.ch///store/user/ratramon/HNLGen_ntuples/private_BToDMuN_HalfMu_Halfe_mass3p0_ctau184p0/step4_nj710.root\n'
p991
aS'root://cms-xrd-global.cern.ch///store/user/ratramon/HNLGen_ntuples/private_BToDMuN_HalfMu_Halfe_mass3p0_ctau184p0/step4_nj711.root\n'
p992
aS'root://cms-xrd-global.cern.ch///store/user/ratramon/HNLGen_ntuples/private_BToDMuN_HalfMu_Halfe_mass3p0_ctau184p0/step4_nj712.root\n'
p993
aS'root://cms-xrd-global.cern.ch///store/user/ratramon/HNLGen_ntuples/private_BToDMuN_HalfMu_Halfe_mass3p0_ctau184p0/step4_nj713.root\n'
p994
aS'root://cms-xrd-global.cern.ch///store/user/ratramon/HNLGen_ntuples/private_BToDMuN_HalfMu_Halfe_mass3p0_ctau184p0/step4_nj714.root\n'
p995
aS'root://cms-xrd-global.cern.ch///store/user/ratramon/HNLGen_ntuples/private_BToDMuN_HalfMu_Halfe_mass3p0_ctau184p0/step4_nj715.root\n'
p996
aS'root://cms-xrd-global.cern.ch///store/user/ratramon/HNLGen_ntuples/private_BToDMuN_HalfMu_Halfe_mass3p0_ctau184p0/step4_nj716.root\n'
p997
aS'root://cms-xrd-global.cern.ch///store/user/ratramon/HNLGen_ntuples/private_BToDMuN_HalfMu_Halfe_mass3p0_ctau184p0/step4_nj717.root\n'
p998
aS'root://cms-xrd-global.cern.ch///store/user/ratramon/HNLGen_ntuples/private_BToDMuN_HalfMu_Halfe_mass3p0_ctau184p0/step4_nj718.root\n'
p999
aS'root://cms-xrd-global.cern.ch///store/user/ratramon/HNLGen_ntuples/private_BToDMuN_HalfMu_Halfe_mass3p0_ctau184p0/step4_nj719.root\n'
p1000
aS'root://cms-xrd-global.cern.ch///store/user/ratramon/HNLGen_ntuples/private_BToDMuN_HalfMu_Halfe_mass3p0_ctau184p0/step4_nj72.root\n'
p1001
aS'root://cms-xrd-global.cern.ch///store/user/ratramon/HNLGen_ntuples/private_BToDMuN_HalfMu_Halfe_mass3p0_ctau184p0/step4_nj720.root\n'
p1002
aS'root://cms-xrd-global.cern.ch///store/user/ratramon/HNLGen_ntuples/private_BToDMuN_HalfMu_Halfe_mass3p0_ctau184p0/step4_nj721.root\n'
p1003
aS'root://cms-xrd-global.cern.ch///store/user/ratramon/HNLGen_ntuples/private_BToDMuN_HalfMu_Halfe_mass3p0_ctau184p0/step4_nj722.root\n'
p1004
aS'root://cms-xrd-global.cern.ch///store/user/ratramon/HNLGen_ntuples/private_BToDMuN_HalfMu_Halfe_mass3p0_ctau184p0/step4_nj723.root\n'
p1005
aS'root://cms-xrd-global.cern.ch///store/user/ratramon/HNLGen_ntuples/private_BToDMuN_HalfMu_Halfe_mass3p0_ctau184p0/step4_nj724.root\n'
p1006
aS'root://cms-xrd-global.cern.ch///store/user/ratramon/HNLGen_ntuples/private_BToDMuN_HalfMu_Halfe_mass3p0_ctau184p0/step4_nj725.root\n'
p1007
aS'root://cms-xrd-global.cern.ch///store/user/ratramon/HNLGen_ntuples/private_BToDMuN_HalfMu_Halfe_mass3p0_ctau184p0/step4_nj726.root\n'
p1008
aS'root://cms-xrd-global.cern.ch///store/user/ratramon/HNLGen_ntuples/private_BToDMuN_HalfMu_Halfe_mass3p0_ctau184p0/step4_nj727.root\n'
p1009
aS'root://cms-xrd-global.cern.ch///store/user/ratramon/HNLGen_ntuples/private_BToDMuN_HalfMu_Halfe_mass3p0_ctau184p0/step4_nj728.root\n'
p1010
aS'root://cms-xrd-global.cern.ch///store/user/ratramon/HNLGen_ntuples/private_BToDMuN_HalfMu_Halfe_mass3p0_ctau184p0/step4_nj729.root\n'
p1011
aS'root://cms-xrd-global.cern.ch///store/user/ratramon/HNLGen_ntuples/private_BToDMuN_HalfMu_Halfe_mass3p0_ctau184p0/step4_nj73.root\n'
p1012
aS'root://cms-xrd-global.cern.ch///store/user/ratramon/HNLGen_ntuples/private_BToDMuN_HalfMu_Halfe_mass3p0_ctau184p0/step4_nj730.root\n'
p1013
aS'root://cms-xrd-global.cern.ch///store/user/ratramon/HNLGen_ntuples/private_BToDMuN_HalfMu_Halfe_mass3p0_ctau184p0/step4_nj731.root\n'
p1014
aS'root://cms-xrd-global.cern.ch///store/user/ratramon/HNLGen_ntuples/private_BToDMuN_HalfMu_Halfe_mass3p0_ctau184p0/step4_nj732.root\n'
p1015
aS'root://cms-xrd-global.cern.ch///store/user/ratramon/HNLGen_ntuples/private_BToDMuN_HalfMu_Halfe_mass3p0_ctau184p0/step4_nj733.root\n'
p1016
aS'root://cms-xrd-global.cern.ch///store/user/ratramon/HNLGen_ntuples/private_BToDMuN_HalfMu_Halfe_mass3p0_ctau184p0/step4_nj734.root\n'
p1017
aS'root://cms-xrd-global.cern.ch///store/user/ratramon/HNLGen_ntuples/private_BToDMuN_HalfMu_Halfe_mass3p0_ctau184p0/step4_nj735.root\n'
p1018
aS'root://cms-xrd-global.cern.ch///store/user/ratramon/HNLGen_ntuples/private_BToDMuN_HalfMu_Halfe_mass3p0_ctau184p0/step4_nj736.root\n'
p1019
aS'root://cms-xrd-global.cern.ch///store/user/ratramon/HNLGen_ntuples/private_BToDMuN_HalfMu_Halfe_mass3p0_ctau184p0/step4_nj737.root\n'
p1020
aS'root://cms-xrd-global.cern.ch///store/user/ratramon/HNLGen_ntuples/private_BToDMuN_HalfMu_Halfe_mass3p0_ctau184p0/step4_nj738.root\n'
p1021
aS'root://cms-xrd-global.cern.ch///store/user/ratramon/HNLGen_ntuples/private_BToDMuN_HalfMu_Halfe_mass3p0_ctau184p0/step4_nj739.root\n'
p1022
aS'root://cms-xrd-global.cern.ch///store/user/ratramon/HNLGen_ntuples/private_BToDMuN_HalfMu_Halfe_mass3p0_ctau184p0/step4_nj74.root\n'
p1023
aS'root://cms-xrd-global.cern.ch///store/user/ratramon/HNLGen_ntuples/private_BToDMuN_HalfMu_Halfe_mass3p0_ctau184p0/step4_nj740.root\n'
p1024
aS'root://cms-xrd-global.cern.ch///store/user/ratramon/HNLGen_ntuples/private_BToDMuN_HalfMu_Halfe_mass3p0_ctau184p0/step4_nj741.root\n'
p1025
aS'root://cms-xrd-global.cern.ch///store/user/ratramon/HNLGen_ntuples/private_BToDMuN_HalfMu_Halfe_mass3p0_ctau184p0/step4_nj742.root\n'
p1026
aS'root://cms-xrd-global.cern.ch///store/user/ratramon/HNLGen_ntuples/private_BToDMuN_HalfMu_Halfe_mass3p0_ctau184p0/step4_nj743.root\n'
p1027
aS'root://cms-xrd-global.cern.ch///store/user/ratramon/HNLGen_ntuples/private_BToDMuN_HalfMu_Halfe_mass3p0_ctau184p0/step4_nj744.root\n'
p1028
aS'root://cms-xrd-global.cern.ch///store/user/ratramon/HNLGen_ntuples/private_BToDMuN_HalfMu_Halfe_mass3p0_ctau184p0/step4_nj745.root\n'
p1029
aS'root://cms-xrd-global.cern.ch///store/user/ratramon/HNLGen_ntuples/private_BToDMuN_HalfMu_Halfe_mass3p0_ctau184p0/step4_nj746.root\n'
p1030
aS'root://cms-xrd-global.cern.ch///store/user/ratramon/HNLGen_ntuples/private_BToDMuN_HalfMu_Halfe_mass3p0_ctau184p0/step4_nj747.root\n'
p1031
aS'root://cms-xrd-global.cern.ch///store/user/ratramon/HNLGen_ntuples/private_BToDMuN_HalfMu_Halfe_mass3p0_ctau184p0/step4_nj748.root\n'
p1032
aS'root://cms-xrd-global.cern.ch///store/user/ratramon/HNLGen_ntuples/private_BToDMuN_HalfMu_Halfe_mass3p0_ctau184p0/step4_nj749.root\n'
p1033
aS'root://cms-xrd-global.cern.ch///store/user/ratramon/HNLGen_ntuples/private_BToDMuN_HalfMu_Halfe_mass3p0_ctau184p0/step4_nj75.root\n'
p1034
aS'root://cms-xrd-global.cern.ch///store/user/ratramon/HNLGen_ntuples/private_BToDMuN_HalfMu_Halfe_mass3p0_ctau184p0/step4_nj750.root\n'
p1035
aS'root://cms-xrd-global.cern.ch///store/user/ratramon/HNLGen_ntuples/private_BToDMuN_HalfMu_Halfe_mass3p0_ctau184p0/step4_nj751.root\n'
p1036
aS'root://cms-xrd-global.cern.ch///store/user/ratramon/HNLGen_ntuples/private_BToDMuN_HalfMu_Halfe_mass3p0_ctau184p0/step4_nj752.root\n'
p1037
aS'root://cms-xrd-global.cern.ch///store/user/ratramon/HNLGen_ntuples/private_BToDMuN_HalfMu_Halfe_mass3p0_ctau184p0/step4_nj753.root\n'
p1038
aS'root://cms-xrd-global.cern.ch///store/user/ratramon/HNLGen_ntuples/private_BToDMuN_HalfMu_Halfe_mass3p0_ctau184p0/step4_nj754.root\n'
p1039
aS'root://cms-xrd-global.cern.ch///store/user/ratramon/HNLGen_ntuples/private_BToDMuN_HalfMu_Halfe_mass3p0_ctau184p0/step4_nj755.root\n'
p1040
aS'root://cms-xrd-global.cern.ch///store/user/ratramon/HNLGen_ntuples/private_BToDMuN_HalfMu_Halfe_mass3p0_ctau184p0/step4_nj756.root\n'
p1041
aS'root://cms-xrd-global.cern.ch///store/user/ratramon/HNLGen_ntuples/private_BToDMuN_HalfMu_Halfe_mass3p0_ctau184p0/step4_nj757.root\n'
p1042
aS'root://cms-xrd-global.cern.ch///store/user/ratramon/HNLGen_ntuples/private_BToDMuN_HalfMu_Halfe_mass3p0_ctau184p0/step4_nj758.root\n'
p1043
aS'root://cms-xrd-global.cern.ch///store/user/ratramon/HNLGen_ntuples/private_BToDMuN_HalfMu_Halfe_mass3p0_ctau184p0/step4_nj759.root\n'
p1044
aS'root://cms-xrd-global.cern.ch///store/user/ratramon/HNLGen_ntuples/private_BToDMuN_HalfMu_Halfe_mass3p0_ctau184p0/step4_nj76.root\n'
p1045
aS'root://cms-xrd-global.cern.ch///store/user/ratramon/HNLGen_ntuples/private_BToDMuN_HalfMu_Halfe_mass3p0_ctau184p0/step4_nj760.root\n'
p1046
aS'root://cms-xrd-global.cern.ch///store/user/ratramon/HNLGen_ntuples/private_BToDMuN_HalfMu_Halfe_mass3p0_ctau184p0/step4_nj762.root\n'
p1047
aS'root://cms-xrd-global.cern.ch///store/user/ratramon/HNLGen_ntuples/private_BToDMuN_HalfMu_Halfe_mass3p0_ctau184p0/step4_nj763.root\n'
p1048
aS'root://cms-xrd-global.cern.ch///store/user/ratramon/HNLGen_ntuples/private_BToDMuN_HalfMu_Halfe_mass3p0_ctau184p0/step4_nj764.root\n'
p1049
aS'root://cms-xrd-global.cern.ch///store/user/ratramon/HNLGen_ntuples/private_BToDMuN_HalfMu_Halfe_mass3p0_ctau184p0/step4_nj765.root\n'
p1050
aS'root://cms-xrd-global.cern.ch///store/user/ratramon/HNLGen_ntuples/private_BToDMuN_HalfMu_Halfe_mass3p0_ctau184p0/step4_nj766.root\n'
p1051
aS'root://cms-xrd-global.cern.ch///store/user/ratramon/HNLGen_ntuples/private_BToDMuN_HalfMu_Halfe_mass3p0_ctau184p0/step4_nj767.root\n'
p1052
aS'root://cms-xrd-global.cern.ch///store/user/ratramon/HNLGen_ntuples/private_BToDMuN_HalfMu_Halfe_mass3p0_ctau184p0/step4_nj768.root\n'
p1053
aS'root://cms-xrd-global.cern.ch///store/user/ratramon/HNLGen_ntuples/private_BToDMuN_HalfMu_Halfe_mass3p0_ctau184p0/step4_nj769.root\n'
p1054
aS'root://cms-xrd-global.cern.ch///store/user/ratramon/HNLGen_ntuples/private_BToDMuN_HalfMu_Halfe_mass3p0_ctau184p0/step4_nj77.root\n'
p1055
aS'root://cms-xrd-global.cern.ch///store/user/ratramon/HNLGen_ntuples/private_BToDMuN_HalfMu_Halfe_mass3p0_ctau184p0/step4_nj770.root\n'
p1056
aS'root://cms-xrd-global.cern.ch///store/user/ratramon/HNLGen_ntuples/private_BToDMuN_HalfMu_Halfe_mass3p0_ctau184p0/step4_nj771.root\n'
p1057
aS'root://cms-xrd-global.cern.ch///store/user/ratramon/HNLGen_ntuples/private_BToDMuN_HalfMu_Halfe_mass3p0_ctau184p0/step4_nj772.root\n'
p1058
aS'root://cms-xrd-global.cern.ch///store/user/ratramon/HNLGen_ntuples/private_BToDMuN_HalfMu_Halfe_mass3p0_ctau184p0/step4_nj773.root\n'
p1059
aS'root://cms-xrd-global.cern.ch///store/user/ratramon/HNLGen_ntuples/private_BToDMuN_HalfMu_Halfe_mass3p0_ctau184p0/step4_nj774.root\n'
p1060
aS'root://cms-xrd-global.cern.ch///store/user/ratramon/HNLGen_ntuples/private_BToDMuN_HalfMu_Halfe_mass3p0_ctau184p0/step4_nj775.root\n'
p1061
aS'root://cms-xrd-global.cern.ch///store/user/ratramon/HNLGen_ntuples/private_BToDMuN_HalfMu_Halfe_mass3p0_ctau184p0/step4_nj776.root\n'
p1062
aS'root://cms-xrd-global.cern.ch///store/user/ratramon/HNLGen_ntuples/private_BToDMuN_HalfMu_Halfe_mass3p0_ctau184p0/step4_nj777.root\n'
p1063
aS'root://cms-xrd-global.cern.ch///store/user/ratramon/HNLGen_ntuples/private_BToDMuN_HalfMu_Halfe_mass3p0_ctau184p0/step4_nj778.root\n'
p1064
aS'root://cms-xrd-global.cern.ch///store/user/ratramon/HNLGen_ntuples/private_BToDMuN_HalfMu_Halfe_mass3p0_ctau184p0/step4_nj779.root\n'
p1065
aS'root://cms-xrd-global.cern.ch///store/user/ratramon/HNLGen_ntuples/private_BToDMuN_HalfMu_Halfe_mass3p0_ctau184p0/step4_nj78.root\n'
p1066
aS'root://cms-xrd-global.cern.ch///store/user/ratramon/HNLGen_ntuples/private_BToDMuN_HalfMu_Halfe_mass3p0_ctau184p0/step4_nj780.root\n'
p1067
aS'root://cms-xrd-global.cern.ch///store/user/ratramon/HNLGen_ntuples/private_BToDMuN_HalfMu_Halfe_mass3p0_ctau184p0/step4_nj781.root\n'
p1068
aS'root://cms-xrd-global.cern.ch///store/user/ratramon/HNLGen_ntuples/private_BToDMuN_HalfMu_Halfe_mass3p0_ctau184p0/step4_nj782.root\n'
p1069
aS'root://cms-xrd-global.cern.ch///store/user/ratramon/HNLGen_ntuples/private_BToDMuN_HalfMu_Halfe_mass3p0_ctau184p0/step4_nj783.root\n'
p1070
aS'root://cms-xrd-global.cern.ch///store/user/ratramon/HNLGen_ntuples/private_BToDMuN_HalfMu_Halfe_mass3p0_ctau184p0/step4_nj784.root\n'
p1071
aS'root://cms-xrd-global.cern.ch///store/user/ratramon/HNLGen_ntuples/private_BToDMuN_HalfMu_Halfe_mass3p0_ctau184p0/step4_nj785.root\n'
p1072
aS'root://cms-xrd-global.cern.ch///store/user/ratramon/HNLGen_ntuples/private_BToDMuN_HalfMu_Halfe_mass3p0_ctau184p0/step4_nj786.root\n'
p1073
aS'root://cms-xrd-global.cern.ch///store/user/ratramon/HNLGen_ntuples/private_BToDMuN_HalfMu_Halfe_mass3p0_ctau184p0/step4_nj787.root\n'
p1074
aS'root://cms-xrd-global.cern.ch///store/user/ratramon/HNLGen_ntuples/private_BToDMuN_HalfMu_Halfe_mass3p0_ctau184p0/step4_nj788.root\n'
p1075
aS'root://cms-xrd-global.cern.ch///store/user/ratramon/HNLGen_ntuples/private_BToDMuN_HalfMu_Halfe_mass3p0_ctau184p0/step4_nj789.root\n'
p1076
aS'root://cms-xrd-global.cern.ch///store/user/ratramon/HNLGen_ntuples/private_BToDMuN_HalfMu_Halfe_mass3p0_ctau184p0/step4_nj79.root\n'
p1077
aS'root://cms-xrd-global.cern.ch///store/user/ratramon/HNLGen_ntuples/private_BToDMuN_HalfMu_Halfe_mass3p0_ctau184p0/step4_nj790.root\n'
p1078
aS'root://cms-xrd-global.cern.ch///store/user/ratramon/HNLGen_ntuples/private_BToDMuN_HalfMu_Halfe_mass3p0_ctau184p0/step4_nj791.root\n'
p1079
aS'root://cms-xrd-global.cern.ch///store/user/ratramon/HNLGen_ntuples/private_BToDMuN_HalfMu_Halfe_mass3p0_ctau184p0/step4_nj792.root\n'
p1080
aS'root://cms-xrd-global.cern.ch///store/user/ratramon/HNLGen_ntuples/private_BToDMuN_HalfMu_Halfe_mass3p0_ctau184p0/step4_nj793.root\n'
p1081
aS'root://cms-xrd-global.cern.ch///store/user/ratramon/HNLGen_ntuples/private_BToDMuN_HalfMu_Halfe_mass3p0_ctau184p0/step4_nj794.root\n'
p1082
aS'root://cms-xrd-global.cern.ch///store/user/ratramon/HNLGen_ntuples/private_BToDMuN_HalfMu_Halfe_mass3p0_ctau184p0/step4_nj795.root\n'
p1083
aS'root://cms-xrd-global.cern.ch///store/user/ratramon/HNLGen_ntuples/private_BToDMuN_HalfMu_Halfe_mass3p0_ctau184p0/step4_nj796.root\n'
p1084
aS'root://cms-xrd-global.cern.ch///store/user/ratramon/HNLGen_ntuples/private_BToDMuN_HalfMu_Halfe_mass3p0_ctau184p0/step4_nj797.root\n'
p1085
aS'root://cms-xrd-global.cern.ch///store/user/ratramon/HNLGen_ntuples/private_BToDMuN_HalfMu_Halfe_mass3p0_ctau184p0/step4_nj798.root\n'
p1086
aS'root://cms-xrd-global.cern.ch///store/user/ratramon/HNLGen_ntuples/private_BToDMuN_HalfMu_Halfe_mass3p0_ctau184p0/step4_nj799.root\n'
p1087
aS'root://cms-xrd-global.cern.ch///store/user/ratramon/HNLGen_ntuples/private_BToDMuN_HalfMu_Halfe_mass3p0_ctau184p0/step4_nj8.root\n'
p1088
aS'root://cms-xrd-global.cern.ch///store/user/ratramon/HNLGen_ntuples/private_BToDMuN_HalfMu_Halfe_mass3p0_ctau184p0/step4_nj80.root\n'
p1089
aS'root://cms-xrd-global.cern.ch///store/user/ratramon/HNLGen_ntuples/private_BToDMuN_HalfMu_Halfe_mass3p0_ctau184p0/step4_nj800.root\n'
p1090
aS'root://cms-xrd-global.cern.ch///store/user/ratramon/HNLGen_ntuples/private_BToDMuN_HalfMu_Halfe_mass3p0_ctau184p0/step4_nj801.root\n'
p1091
aS'root://cms-xrd-global.cern.ch///store/user/ratramon/HNLGen_ntuples/private_BToDMuN_HalfMu_Halfe_mass3p0_ctau184p0/step4_nj802.root\n'
p1092
aS'root://cms-xrd-global.cern.ch///store/user/ratramon/HNLGen_ntuples/private_BToDMuN_HalfMu_Halfe_mass3p0_ctau184p0/step4_nj803.root\n'
p1093
aS'root://cms-xrd-global.cern.ch///store/user/ratramon/HNLGen_ntuples/private_BToDMuN_HalfMu_Halfe_mass3p0_ctau184p0/step4_nj804.root\n'
p1094
aS'root://cms-xrd-global.cern.ch///store/user/ratramon/HNLGen_ntuples/private_BToDMuN_HalfMu_Halfe_mass3p0_ctau184p0/step4_nj805.root\n'
p1095
aS'root://cms-xrd-global.cern.ch///store/user/ratramon/HNLGen_ntuples/private_BToDMuN_HalfMu_Halfe_mass3p0_ctau184p0/step4_nj806.root\n'
p1096
aS'root://cms-xrd-global.cern.ch///store/user/ratramon/HNLGen_ntuples/private_BToDMuN_HalfMu_Halfe_mass3p0_ctau184p0/step4_nj807.root\n'
p1097
aS'root://cms-xrd-global.cern.ch///store/user/ratramon/HNLGen_ntuples/private_BToDMuN_HalfMu_Halfe_mass3p0_ctau184p0/step4_nj808.root\n'
p1098
aS'root://cms-xrd-global.cern.ch///store/user/ratramon/HNLGen_ntuples/private_BToDMuN_HalfMu_Halfe_mass3p0_ctau184p0/step4_nj809.root\n'
p1099
aS'root://cms-xrd-global.cern.ch///store/user/ratramon/HNLGen_ntuples/private_BToDMuN_HalfMu_Halfe_mass3p0_ctau184p0/step4_nj81.root\n'
p1100
aS'root://cms-xrd-global.cern.ch///store/user/ratramon/HNLGen_ntuples/private_BToDMuN_HalfMu_Halfe_mass3p0_ctau184p0/step4_nj810.root\n'
p1101
aS'root://cms-xrd-global.cern.ch///store/user/ratramon/HNLGen_ntuples/private_BToDMuN_HalfMu_Halfe_mass3p0_ctau184p0/step4_nj811.root\n'
p1102
aS'root://cms-xrd-global.cern.ch///store/user/ratramon/HNLGen_ntuples/private_BToDMuN_HalfMu_Halfe_mass3p0_ctau184p0/step4_nj812.root\n'
p1103
aS'root://cms-xrd-global.cern.ch///store/user/ratramon/HNLGen_ntuples/private_BToDMuN_HalfMu_Halfe_mass3p0_ctau184p0/step4_nj813.root\n'
p1104
aS'root://cms-xrd-global.cern.ch///store/user/ratramon/HNLGen_ntuples/private_BToDMuN_HalfMu_Halfe_mass3p0_ctau184p0/step4_nj814.root\n'
p1105
aS'root://cms-xrd-global.cern.ch///store/user/ratramon/HNLGen_ntuples/private_BToDMuN_HalfMu_Halfe_mass3p0_ctau184p0/step4_nj815.root\n'
p1106
aS'root://cms-xrd-global.cern.ch///store/user/ratramon/HNLGen_ntuples/private_BToDMuN_HalfMu_Halfe_mass3p0_ctau184p0/step4_nj816.root\n'
p1107
aS'root://cms-xrd-global.cern.ch///store/user/ratramon/HNLGen_ntuples/private_BToDMuN_HalfMu_Halfe_mass3p0_ctau184p0/step4_nj817.root\n'
p1108
aS'root://cms-xrd-global.cern.ch///store/user/ratramon/HNLGen_ntuples/private_BToDMuN_HalfMu_Halfe_mass3p0_ctau184p0/step4_nj818.root\n'
p1109
aS'root://cms-xrd-global.cern.ch///store/user/ratramon/HNLGen_ntuples/private_BToDMuN_HalfMu_Halfe_mass3p0_ctau184p0/step4_nj819.root\n'
p1110
aS'root://cms-xrd-global.cern.ch///store/user/ratramon/HNLGen_ntuples/private_BToDMuN_HalfMu_Halfe_mass3p0_ctau184p0/step4_nj82.root\n'
p1111
aS'root://cms-xrd-global.cern.ch///store/user/ratramon/HNLGen_ntuples/private_BToDMuN_HalfMu_Halfe_mass3p0_ctau184p0/step4_nj820.root\n'
p1112
aS'root://cms-xrd-global.cern.ch///store/user/ratramon/HNLGen_ntuples/private_BToDMuN_HalfMu_Halfe_mass3p0_ctau184p0/step4_nj821.root\n'
p1113
aS'root://cms-xrd-global.cern.ch///store/user/ratramon/HNLGen_ntuples/private_BToDMuN_HalfMu_Halfe_mass3p0_ctau184p0/step4_nj822.root\n'
p1114
aS'root://cms-xrd-global.cern.ch///store/user/ratramon/HNLGen_ntuples/private_BToDMuN_HalfMu_Halfe_mass3p0_ctau184p0/step4_nj823.root\n'
p1115
aS'root://cms-xrd-global.cern.ch///store/user/ratramon/HNLGen_ntuples/private_BToDMuN_HalfMu_Halfe_mass3p0_ctau184p0/step4_nj824.root\n'
p1116
aS'root://cms-xrd-global.cern.ch///store/user/ratramon/HNLGen_ntuples/private_BToDMuN_HalfMu_Halfe_mass3p0_ctau184p0/step4_nj825.root\n'
p1117
aS'root://cms-xrd-global.cern.ch///store/user/ratramon/HNLGen_ntuples/private_BToDMuN_HalfMu_Halfe_mass3p0_ctau184p0/step4_nj826.root\n'
p1118
aS'root://cms-xrd-global.cern.ch///store/user/ratramon/HNLGen_ntuples/private_BToDMuN_HalfMu_Halfe_mass3p0_ctau184p0/step4_nj827.root\n'
p1119
aS'root://cms-xrd-global.cern.ch///store/user/ratramon/HNLGen_ntuples/private_BToDMuN_HalfMu_Halfe_mass3p0_ctau184p0/step4_nj828.root\n'
p1120
aS'root://cms-xrd-global.cern.ch///store/user/ratramon/HNLGen_ntuples/private_BToDMuN_HalfMu_Halfe_mass3p0_ctau184p0/step4_nj829.root\n'
p1121
aS'root://cms-xrd-global.cern.ch///store/user/ratramon/HNLGen_ntuples/private_BToDMuN_HalfMu_Halfe_mass3p0_ctau184p0/step4_nj83.root\n'
p1122
aS'root://cms-xrd-global.cern.ch///store/user/ratramon/HNLGen_ntuples/private_BToDMuN_HalfMu_Halfe_mass3p0_ctau184p0/step4_nj830.root\n'
p1123
aS'root://cms-xrd-global.cern.ch///store/user/ratramon/HNLGen_ntuples/private_BToDMuN_HalfMu_Halfe_mass3p0_ctau184p0/step4_nj831.root\n'
p1124
aS'root://cms-xrd-global.cern.ch///store/user/ratramon/HNLGen_ntuples/private_BToDMuN_HalfMu_Halfe_mass3p0_ctau184p0/step4_nj832.root\n'
p1125
aS'root://cms-xrd-global.cern.ch///store/user/ratramon/HNLGen_ntuples/private_BToDMuN_HalfMu_Halfe_mass3p0_ctau184p0/step4_nj833.root\n'
p1126
aS'root://cms-xrd-global.cern.ch///store/user/ratramon/HNLGen_ntuples/private_BToDMuN_HalfMu_Halfe_mass3p0_ctau184p0/step4_nj835.root\n'
p1127
aS'root://cms-xrd-global.cern.ch///store/user/ratramon/HNLGen_ntuples/private_BToDMuN_HalfMu_Halfe_mass3p0_ctau184p0/step4_nj836.root\n'
p1128
aS'root://cms-xrd-global.cern.ch///store/user/ratramon/HNLGen_ntuples/private_BToDMuN_HalfMu_Halfe_mass3p0_ctau184p0/step4_nj837.root\n'
p1129
aS'root://cms-xrd-global.cern.ch///store/user/ratramon/HNLGen_ntuples/private_BToDMuN_HalfMu_Halfe_mass3p0_ctau184p0/step4_nj838.root\n'
p1130
aS'root://cms-xrd-global.cern.ch///store/user/ratramon/HNLGen_ntuples/private_BToDMuN_HalfMu_Halfe_mass3p0_ctau184p0/step4_nj839.root\n'
p1131
aS'root://cms-xrd-global.cern.ch///store/user/ratramon/HNLGen_ntuples/private_BToDMuN_HalfMu_Halfe_mass3p0_ctau184p0/step4_nj84.root\n'
p1132
aS'root://cms-xrd-global.cern.ch///store/user/ratramon/HNLGen_ntuples/private_BToDMuN_HalfMu_Halfe_mass3p0_ctau184p0/step4_nj840.root\n'
p1133
aS'root://cms-xrd-global.cern.ch///store/user/ratramon/HNLGen_ntuples/private_BToDMuN_HalfMu_Halfe_mass3p0_ctau184p0/step4_nj841.root\n'
p1134
aS'root://cms-xrd-global.cern.ch///store/user/ratramon/HNLGen_ntuples/private_BToDMuN_HalfMu_Halfe_mass3p0_ctau184p0/step4_nj842.root\n'
p1135
aS'root://cms-xrd-global.cern.ch///store/user/ratramon/HNLGen_ntuples/private_BToDMuN_HalfMu_Halfe_mass3p0_ctau184p0/step4_nj843.root\n'
p1136
aS'root://cms-xrd-global.cern.ch///store/user/ratramon/HNLGen_ntuples/private_BToDMuN_HalfMu_Halfe_mass3p0_ctau184p0/step4_nj844.root\n'
p1137
aS'root://cms-xrd-global.cern.ch///store/user/ratramon/HNLGen_ntuples/private_BToDMuN_HalfMu_Halfe_mass3p0_ctau184p0/step4_nj845.root\n'
p1138
aS'root://cms-xrd-global.cern.ch///store/user/ratramon/HNLGen_ntuples/private_BToDMuN_HalfMu_Halfe_mass3p0_ctau184p0/step4_nj846.root\n'
p1139
aS'root://cms-xrd-global.cern.ch///store/user/ratramon/HNLGen_ntuples/private_BToDMuN_HalfMu_Halfe_mass3p0_ctau184p0/step4_nj847.root\n'
p1140
aS'root://cms-xrd-global.cern.ch///store/user/ratramon/HNLGen_ntuples/private_BToDMuN_HalfMu_Halfe_mass3p0_ctau184p0/step4_nj848.root\n'
p1141
aS'root://cms-xrd-global.cern.ch///store/user/ratramon/HNLGen_ntuples/private_BToDMuN_HalfMu_Halfe_mass3p0_ctau184p0/step4_nj849.root\n'
p1142
aS'root://cms-xrd-global.cern.ch///store/user/ratramon/HNLGen_ntuples/private_BToDMuN_HalfMu_Halfe_mass3p0_ctau184p0/step4_nj85.root\n'
p1143
aS'root://cms-xrd-global.cern.ch///store/user/ratramon/HNLGen_ntuples/private_BToDMuN_HalfMu_Halfe_mass3p0_ctau184p0/step4_nj850.root\n'
p1144
aS'root://cms-xrd-global.cern.ch///store/user/ratramon/HNLGen_ntuples/private_BToDMuN_HalfMu_Halfe_mass3p0_ctau184p0/step4_nj851.root\n'
p1145
aS'root://cms-xrd-global.cern.ch///store/user/ratramon/HNLGen_ntuples/private_BToDMuN_HalfMu_Halfe_mass3p0_ctau184p0/step4_nj852.root\n'
p1146
aS'root://cms-xrd-global.cern.ch///store/user/ratramon/HNLGen_ntuples/private_BToDMuN_HalfMu_Halfe_mass3p0_ctau184p0/step4_nj853.root\n'
p1147
aS'root://cms-xrd-global.cern.ch///store/user/ratramon/HNLGen_ntuples/private_BToDMuN_HalfMu_Halfe_mass3p0_ctau184p0/step4_nj854.root\n'
p1148
aS'root://cms-xrd-global.cern.ch///store/user/ratramon/HNLGen_ntuples/private_BToDMuN_HalfMu_Halfe_mass3p0_ctau184p0/step4_nj855.root\n'
p1149
aS'root://cms-xrd-global.cern.ch///store/user/ratramon/HNLGen_ntuples/private_BToDMuN_HalfMu_Halfe_mass3p0_ctau184p0/step4_nj856.root\n'
p1150
aS'root://cms-xrd-global.cern.ch///store/user/ratramon/HNLGen_ntuples/private_BToDMuN_HalfMu_Halfe_mass3p0_ctau184p0/step4_nj857.root\n'
p1151
aS'root://cms-xrd-global.cern.ch///store/user/ratramon/HNLGen_ntuples/private_BToDMuN_HalfMu_Halfe_mass3p0_ctau184p0/step4_nj858.root\n'
p1152
aS'root://cms-xrd-global.cern.ch///store/user/ratramon/HNLGen_ntuples/private_BToDMuN_HalfMu_Halfe_mass3p0_ctau184p0/step4_nj859.root\n'
p1153
aS'root://cms-xrd-global.cern.ch///store/user/ratramon/HNLGen_ntuples/private_BToDMuN_HalfMu_Halfe_mass3p0_ctau184p0/step4_nj86.root\n'
p1154
aS'root://cms-xrd-global.cern.ch///store/user/ratramon/HNLGen_ntuples/private_BToDMuN_HalfMu_Halfe_mass3p0_ctau184p0/step4_nj860.root\n'
p1155
aS'root://cms-xrd-global.cern.ch///store/user/ratramon/HNLGen_ntuples/private_BToDMuN_HalfMu_Halfe_mass3p0_ctau184p0/step4_nj861.root\n'
p1156
aS'root://cms-xrd-global.cern.ch///store/user/ratramon/HNLGen_ntuples/private_BToDMuN_HalfMu_Halfe_mass3p0_ctau184p0/step4_nj862.root\n'
p1157
aS'root://cms-xrd-global.cern.ch///store/user/ratramon/HNLGen_ntuples/private_BToDMuN_HalfMu_Halfe_mass3p0_ctau184p0/step4_nj863.root\n'
p1158
aS'root://cms-xrd-global.cern.ch///store/user/ratramon/HNLGen_ntuples/private_BToDMuN_HalfMu_Halfe_mass3p0_ctau184p0/step4_nj864.root\n'
p1159
aS'root://cms-xrd-global.cern.ch///store/user/ratramon/HNLGen_ntuples/private_BToDMuN_HalfMu_Halfe_mass3p0_ctau184p0/step4_nj865.root\n'
p1160
aS'root://cms-xrd-global.cern.ch///store/user/ratramon/HNLGen_ntuples/private_BToDMuN_HalfMu_Halfe_mass3p0_ctau184p0/step4_nj866.root\n'
p1161
aS'root://cms-xrd-global.cern.ch///store/user/ratramon/HNLGen_ntuples/private_BToDMuN_HalfMu_Halfe_mass3p0_ctau184p0/step4_nj867.root\n'
p1162
aS'root://cms-xrd-global.cern.ch///store/user/ratramon/HNLGen_ntuples/private_BToDMuN_HalfMu_Halfe_mass3p0_ctau184p0/step4_nj868.root\n'
p1163
aS'root://cms-xrd-global.cern.ch///store/user/ratramon/HNLGen_ntuples/private_BToDMuN_HalfMu_Halfe_mass3p0_ctau184p0/step4_nj869.root\n'
p1164
aS'root://cms-xrd-global.cern.ch///store/user/ratramon/HNLGen_ntuples/private_BToDMuN_HalfMu_Halfe_mass3p0_ctau184p0/step4_nj87.root\n'
p1165
aS'root://cms-xrd-global.cern.ch///store/user/ratramon/HNLGen_ntuples/private_BToDMuN_HalfMu_Halfe_mass3p0_ctau184p0/step4_nj870.root\n'
p1166
aS'root://cms-xrd-global.cern.ch///store/user/ratramon/HNLGen_ntuples/private_BToDMuN_HalfMu_Halfe_mass3p0_ctau184p0/step4_nj871.root\n'
p1167
aS'root://cms-xrd-global.cern.ch///store/user/ratramon/HNLGen_ntuples/private_BToDMuN_HalfMu_Halfe_mass3p0_ctau184p0/step4_nj872.root\n'
p1168
aS'root://cms-xrd-global.cern.ch///store/user/ratramon/HNLGen_ntuples/private_BToDMuN_HalfMu_Halfe_mass3p0_ctau184p0/step4_nj873.root\n'
p1169
aS'root://cms-xrd-global.cern.ch///store/user/ratramon/HNLGen_ntuples/private_BToDMuN_HalfMu_Halfe_mass3p0_ctau184p0/step4_nj874.root\n'
p1170
aS'root://cms-xrd-global.cern.ch///store/user/ratramon/HNLGen_ntuples/private_BToDMuN_HalfMu_Halfe_mass3p0_ctau184p0/step4_nj875.root\n'
p1171
aS'root://cms-xrd-global.cern.ch///store/user/ratramon/HNLGen_ntuples/private_BToDMuN_HalfMu_Halfe_mass3p0_ctau184p0/step4_nj876.root\n'
p1172
aS'root://cms-xrd-global.cern.ch///store/user/ratramon/HNLGen_ntuples/private_BToDMuN_HalfMu_Halfe_mass3p0_ctau184p0/step4_nj877.root\n'
p1173
aS'root://cms-xrd-global.cern.ch///store/user/ratramon/HNLGen_ntuples/private_BToDMuN_HalfMu_Halfe_mass3p0_ctau184p0/step4_nj878.root\n'
p1174
aS'root://cms-xrd-global.cern.ch///store/user/ratramon/HNLGen_ntuples/private_BToDMuN_HalfMu_Halfe_mass3p0_ctau184p0/step4_nj879.root\n'
p1175
aS'root://cms-xrd-global.cern.ch///store/user/ratramon/HNLGen_ntuples/private_BToDMuN_HalfMu_Halfe_mass3p0_ctau184p0/step4_nj88.root\n'
p1176
aS'root://cms-xrd-global.cern.ch///store/user/ratramon/HNLGen_ntuples/private_BToDMuN_HalfMu_Halfe_mass3p0_ctau184p0/step4_nj880.root\n'
p1177
aS'root://cms-xrd-global.cern.ch///store/user/ratramon/HNLGen_ntuples/private_BToDMuN_HalfMu_Halfe_mass3p0_ctau184p0/step4_nj881.root\n'
p1178
aS'root://cms-xrd-global.cern.ch///store/user/ratramon/HNLGen_ntuples/private_BToDMuN_HalfMu_Halfe_mass3p0_ctau184p0/step4_nj882.root\n'
p1179
aS'root://cms-xrd-global.cern.ch///store/user/ratramon/HNLGen_ntuples/private_BToDMuN_HalfMu_Halfe_mass3p0_ctau184p0/step4_nj883.root\n'
p1180
aS'root://cms-xrd-global.cern.ch///store/user/ratramon/HNLGen_ntuples/private_BToDMuN_HalfMu_Halfe_mass3p0_ctau184p0/step4_nj884.root\n'
p1181
aS'root://cms-xrd-global.cern.ch///store/user/ratramon/HNLGen_ntuples/private_BToDMuN_HalfMu_Halfe_mass3p0_ctau184p0/step4_nj885.root\n'
p1182
aS'root://cms-xrd-global.cern.ch///store/user/ratramon/HNLGen_ntuples/private_BToDMuN_HalfMu_Halfe_mass3p0_ctau184p0/step4_nj886.root\n'
p1183
aS'root://cms-xrd-global.cern.ch///store/user/ratramon/HNLGen_ntuples/private_BToDMuN_HalfMu_Halfe_mass3p0_ctau184p0/step4_nj887.root\n'
p1184
aS'root://cms-xrd-global.cern.ch///store/user/ratramon/HNLGen_ntuples/private_BToDMuN_HalfMu_Halfe_mass3p0_ctau184p0/step4_nj888.root\n'
p1185
aS'root://cms-xrd-global.cern.ch///store/user/ratramon/HNLGen_ntuples/private_BToDMuN_HalfMu_Halfe_mass3p0_ctau184p0/step4_nj889.root\n'
p1186
aS'root://cms-xrd-global.cern.ch///store/user/ratramon/HNLGen_ntuples/private_BToDMuN_HalfMu_Halfe_mass3p0_ctau184p0/step4_nj89.root\n'
p1187
aS'root://cms-xrd-global.cern.ch///store/user/ratramon/HNLGen_ntuples/private_BToDMuN_HalfMu_Halfe_mass3p0_ctau184p0/step4_nj890.root\n'
p1188
aS'root://cms-xrd-global.cern.ch///store/user/ratramon/HNLGen_ntuples/private_BToDMuN_HalfMu_Halfe_mass3p0_ctau184p0/step4_nj891.root\n'
p1189
aS'root://cms-xrd-global.cern.ch///store/user/ratramon/HNLGen_ntuples/private_BToDMuN_HalfMu_Halfe_mass3p0_ctau184p0/step4_nj892.root\n'
p1190
aS'root://cms-xrd-global.cern.ch///store/user/ratramon/HNLGen_ntuples/private_BToDMuN_HalfMu_Halfe_mass3p0_ctau184p0/step4_nj893.root\n'
p1191
aS'root://cms-xrd-global.cern.ch///store/user/ratramon/HNLGen_ntuples/private_BToDMuN_HalfMu_Halfe_mass3p0_ctau184p0/step4_nj894.root\n'
p1192
aS'root://cms-xrd-global.cern.ch///store/user/ratramon/HNLGen_ntuples/private_BToDMuN_HalfMu_Halfe_mass3p0_ctau184p0/step4_nj895.root\n'
p1193
aS'root://cms-xrd-global.cern.ch///store/user/ratramon/HNLGen_ntuples/private_BToDMuN_HalfMu_Halfe_mass3p0_ctau184p0/step4_nj896.root\n'
p1194
aS'root://cms-xrd-global.cern.ch///store/user/ratramon/HNLGen_ntuples/private_BToDMuN_HalfMu_Halfe_mass3p0_ctau184p0/step4_nj897.root\n'
p1195
aS'root://cms-xrd-global.cern.ch///store/user/ratramon/HNLGen_ntuples/private_BToDMuN_HalfMu_Halfe_mass3p0_ctau184p0/step4_nj898.root\n'
p1196
aS'root://cms-xrd-global.cern.ch///store/user/ratramon/HNLGen_ntuples/private_BToDMuN_HalfMu_Halfe_mass3p0_ctau184p0/step4_nj899.root\n'
p1197
aS'root://cms-xrd-global.cern.ch///store/user/ratramon/HNLGen_ntuples/private_BToDMuN_HalfMu_Halfe_mass3p0_ctau184p0/step4_nj9.root\n'
p1198
aS'root://cms-xrd-global.cern.ch///store/user/ratramon/HNLGen_ntuples/private_BToDMuN_HalfMu_Halfe_mass3p0_ctau184p0/step4_nj90.root\n'
p1199
aS'root://cms-xrd-global.cern.ch///store/user/ratramon/HNLGen_ntuples/private_BToDMuN_HalfMu_Halfe_mass3p0_ctau184p0/step4_nj900.root\n'
p1200
aS'root://cms-xrd-global.cern.ch///store/user/ratramon/HNLGen_ntuples/private_BToDMuN_HalfMu_Halfe_mass3p0_ctau184p0/step4_nj901.root\n'
p1201
aS'root://cms-xrd-global.cern.ch///store/user/ratramon/HNLGen_ntuples/private_BToDMuN_HalfMu_Halfe_mass3p0_ctau184p0/step4_nj902.root\n'
p1202
aS'root://cms-xrd-global.cern.ch///store/user/ratramon/HNLGen_ntuples/private_BToDMuN_HalfMu_Halfe_mass3p0_ctau184p0/step4_nj903.root\n'
p1203
aS'root://cms-xrd-global.cern.ch///store/user/ratramon/HNLGen_ntuples/private_BToDMuN_HalfMu_Halfe_mass3p0_ctau184p0/step4_nj904.root\n'
p1204
aS'root://cms-xrd-global.cern.ch///store/user/ratramon/HNLGen_ntuples/private_BToDMuN_HalfMu_Halfe_mass3p0_ctau184p0/step4_nj905.root\n'
p1205
aS'root://cms-xrd-global.cern.ch///store/user/ratramon/HNLGen_ntuples/private_BToDMuN_HalfMu_Halfe_mass3p0_ctau184p0/step4_nj906.root\n'
p1206
aS'root://cms-xrd-global.cern.ch///store/user/ratramon/HNLGen_ntuples/private_BToDMuN_HalfMu_Halfe_mass3p0_ctau184p0/step4_nj907.root\n'
p1207
aS'root://cms-xrd-global.cern.ch///store/user/ratramon/HNLGen_ntuples/private_BToDMuN_HalfMu_Halfe_mass3p0_ctau184p0/step4_nj908.root\n'
p1208
aS'root://cms-xrd-global.cern.ch///store/user/ratramon/HNLGen_ntuples/private_BToDMuN_HalfMu_Halfe_mass3p0_ctau184p0/step4_nj909.root\n'
p1209
aS'root://cms-xrd-global.cern.ch///store/user/ratramon/HNLGen_ntuples/private_BToDMuN_HalfMu_Halfe_mass3p0_ctau184p0/step4_nj91.root\n'
p1210
aS'root://cms-xrd-global.cern.ch///store/user/ratramon/HNLGen_ntuples/private_BToDMuN_HalfMu_Halfe_mass3p0_ctau184p0/step4_nj910.root\n'
p1211
aS'root://cms-xrd-global.cern.ch///store/user/ratramon/HNLGen_ntuples/private_BToDMuN_HalfMu_Halfe_mass3p0_ctau184p0/step4_nj911.root\n'
p1212
aS'root://cms-xrd-global.cern.ch///store/user/ratramon/HNLGen_ntuples/private_BToDMuN_HalfMu_Halfe_mass3p0_ctau184p0/step4_nj912.root\n'
p1213
aS'root://cms-xrd-global.cern.ch///store/user/ratramon/HNLGen_ntuples/private_BToDMuN_HalfMu_Halfe_mass3p0_ctau184p0/step4_nj913.root\n'
p1214
aS'root://cms-xrd-global.cern.ch///store/user/ratramon/HNLGen_ntuples/private_BToDMuN_HalfMu_Halfe_mass3p0_ctau184p0/step4_nj914.root\n'
p1215
aS'root://cms-xrd-global.cern.ch///store/user/ratramon/HNLGen_ntuples/private_BToDMuN_HalfMu_Halfe_mass3p0_ctau184p0/step4_nj915.root\n'
p1216
aS'root://cms-xrd-global.cern.ch///store/user/ratramon/HNLGen_ntuples/private_BToDMuN_HalfMu_Halfe_mass3p0_ctau184p0/step4_nj916.root\n'
p1217
aS'root://cms-xrd-global.cern.ch///store/user/ratramon/HNLGen_ntuples/private_BToDMuN_HalfMu_Halfe_mass3p0_ctau184p0/step4_nj917.root\n'
p1218
aS'root://cms-xrd-global.cern.ch///store/user/ratramon/HNLGen_ntuples/private_BToDMuN_HalfMu_Halfe_mass3p0_ctau184p0/step4_nj918.root\n'
p1219
aS'root://cms-xrd-global.cern.ch///store/user/ratramon/HNLGen_ntuples/private_BToDMuN_HalfMu_Halfe_mass3p0_ctau184p0/step4_nj919.root\n'
p1220
aS'root://cms-xrd-global.cern.ch///store/user/ratramon/HNLGen_ntuples/private_BToDMuN_HalfMu_Halfe_mass3p0_ctau184p0/step4_nj92.root\n'
p1221
aS'root://cms-xrd-global.cern.ch///store/user/ratramon/HNLGen_ntuples/private_BToDMuN_HalfMu_Halfe_mass3p0_ctau184p0/step4_nj920.root\n'
p1222
aS'root://cms-xrd-global.cern.ch///store/user/ratramon/HNLGen_ntuples/private_BToDMuN_HalfMu_Halfe_mass3p0_ctau184p0/step4_nj921.root\n'
p1223
aS'root://cms-xrd-global.cern.ch///store/user/ratramon/HNLGen_ntuples/private_BToDMuN_HalfMu_Halfe_mass3p0_ctau184p0/step4_nj922.root\n'
p1224
aS'root://cms-xrd-global.cern.ch///store/user/ratramon/HNLGen_ntuples/private_BToDMuN_HalfMu_Halfe_mass3p0_ctau184p0/step4_nj923.root\n'
p1225
aS'root://cms-xrd-global.cern.ch///store/user/ratramon/HNLGen_ntuples/private_BToDMuN_HalfMu_Halfe_mass3p0_ctau184p0/step4_nj924.root\n'
p1226
aS'root://cms-xrd-global.cern.ch///store/user/ratramon/HNLGen_ntuples/private_BToDMuN_HalfMu_Halfe_mass3p0_ctau184p0/step4_nj925.root\n'
p1227
aS'root://cms-xrd-global.cern.ch///store/user/ratramon/HNLGen_ntuples/private_BToDMuN_HalfMu_Halfe_mass3p0_ctau184p0/step4_nj926.root\n'
p1228
aS'root://cms-xrd-global.cern.ch///store/user/ratramon/HNLGen_ntuples/private_BToDMuN_HalfMu_Halfe_mass3p0_ctau184p0/step4_nj927.root\n'
p1229
aS'root://cms-xrd-global.cern.ch///store/user/ratramon/HNLGen_ntuples/private_BToDMuN_HalfMu_Halfe_mass3p0_ctau184p0/step4_nj928.root\n'
p1230
aS'root://cms-xrd-global.cern.ch///store/user/ratramon/HNLGen_ntuples/private_BToDMuN_HalfMu_Halfe_mass3p0_ctau184p0/step4_nj93.root\n'
p1231
aS'root://cms-xrd-global.cern.ch///store/user/ratramon/HNLGen_ntuples/private_BToDMuN_HalfMu_Halfe_mass3p0_ctau184p0/step4_nj930.root\n'
p1232
aS'root://cms-xrd-global.cern.ch///store/user/ratramon/HNLGen_ntuples/private_BToDMuN_HalfMu_Halfe_mass3p0_ctau184p0/step4_nj931.root\n'
p1233
aS'root://cms-xrd-global.cern.ch///store/user/ratramon/HNLGen_ntuples/private_BToDMuN_HalfMu_Halfe_mass3p0_ctau184p0/step4_nj932.root\n'
p1234
aS'root://cms-xrd-global.cern.ch///store/user/ratramon/HNLGen_ntuples/private_BToDMuN_HalfMu_Halfe_mass3p0_ctau184p0/step4_nj933.root\n'
p1235
aS'root://cms-xrd-global.cern.ch///store/user/ratramon/HNLGen_ntuples/private_BToDMuN_HalfMu_Halfe_mass3p0_ctau184p0/step4_nj934.root\n'
p1236
aS'root://cms-xrd-global.cern.ch///store/user/ratramon/HNLGen_ntuples/private_BToDMuN_HalfMu_Halfe_mass3p0_ctau184p0/step4_nj935.root\n'
p1237
aS'root://cms-xrd-global.cern.ch///store/user/ratramon/HNLGen_ntuples/private_BToDMuN_HalfMu_Halfe_mass3p0_ctau184p0/step4_nj936.root\n'
p1238
aS'root://cms-xrd-global.cern.ch///store/user/ratramon/HNLGen_ntuples/private_BToDMuN_HalfMu_Halfe_mass3p0_ctau184p0/step4_nj937.root\n'
p1239
aS'root://cms-xrd-global.cern.ch///store/user/ratramon/HNLGen_ntuples/private_BToDMuN_HalfMu_Halfe_mass3p0_ctau184p0/step4_nj938.root\n'
p1240
aS'root://cms-xrd-global.cern.ch///store/user/ratramon/HNLGen_ntuples/private_BToDMuN_HalfMu_Halfe_mass3p0_ctau184p0/step4_nj939.root\n'
p1241
aS'root://cms-xrd-global.cern.ch///store/user/ratramon/HNLGen_ntuples/private_BToDMuN_HalfMu_Halfe_mass3p0_ctau184p0/step4_nj94.root\n'
p1242
aS'root://cms-xrd-global.cern.ch///store/user/ratramon/HNLGen_ntuples/private_BToDMuN_HalfMu_Halfe_mass3p0_ctau184p0/step4_nj940.root\n'
p1243
aS'root://cms-xrd-global.cern.ch///store/user/ratramon/HNLGen_ntuples/private_BToDMuN_HalfMu_Halfe_mass3p0_ctau184p0/step4_nj941.root\n'
p1244
aS'root://cms-xrd-global.cern.ch///store/user/ratramon/HNLGen_ntuples/private_BToDMuN_HalfMu_Halfe_mass3p0_ctau184p0/step4_nj942.root\n'
p1245
aS'root://cms-xrd-global.cern.ch///store/user/ratramon/HNLGen_ntuples/private_BToDMuN_HalfMu_Halfe_mass3p0_ctau184p0/step4_nj943.root\n'
p1246
aS'root://cms-xrd-global.cern.ch///store/user/ratramon/HNLGen_ntuples/private_BToDMuN_HalfMu_Halfe_mass3p0_ctau184p0/step4_nj944.root\n'
p1247
aS'root://cms-xrd-global.cern.ch///store/user/ratramon/HNLGen_ntuples/private_BToDMuN_HalfMu_Halfe_mass3p0_ctau184p0/step4_nj945.root\n'
p1248
aS'root://cms-xrd-global.cern.ch///store/user/ratramon/HNLGen_ntuples/private_BToDMuN_HalfMu_Halfe_mass3p0_ctau184p0/step4_nj946.root\n'
p1249
aS'root://cms-xrd-global.cern.ch///store/user/ratramon/HNLGen_ntuples/private_BToDMuN_HalfMu_Halfe_mass3p0_ctau184p0/step4_nj947.root\n'
p1250
aS'root://cms-xrd-global.cern.ch///store/user/ratramon/HNLGen_ntuples/private_BToDMuN_HalfMu_Halfe_mass3p0_ctau184p0/step4_nj948.root\n'
p1251
aS'root://cms-xrd-global.cern.ch///store/user/ratramon/HNLGen_ntuples/private_BToDMuN_HalfMu_Halfe_mass3p0_ctau184p0/step4_nj949.root\n'
p1252
aS'root://cms-xrd-global.cern.ch///store/user/ratramon/HNLGen_ntuples/private_BToDMuN_HalfMu_Halfe_mass3p0_ctau184p0/step4_nj95.root\n'
p1253
aS'root://cms-xrd-global.cern.ch///store/user/ratramon/HNLGen_ntuples/private_BToDMuN_HalfMu_Halfe_mass3p0_ctau184p0/step4_nj950.root\n'
p1254
aS'root://cms-xrd-global.cern.ch///store/user/ratramon/HNLGen_ntuples/private_BToDMuN_HalfMu_Halfe_mass3p0_ctau184p0/step4_nj951.root\n'
p1255
aS'root://cms-xrd-global.cern.ch///store/user/ratramon/HNLGen_ntuples/private_BToDMuN_HalfMu_Halfe_mass3p0_ctau184p0/step4_nj952.root\n'
p1256
aS'root://cms-xrd-global.cern.ch///store/user/ratramon/HNLGen_ntuples/private_BToDMuN_HalfMu_Halfe_mass3p0_ctau184p0/step4_nj953.root\n'
p1257
aS'root://cms-xrd-global.cern.ch///store/user/ratramon/HNLGen_ntuples/private_BToDMuN_HalfMu_Halfe_mass3p0_ctau184p0/step4_nj954.root\n'
p1258
aS'root://cms-xrd-global.cern.ch///store/user/ratramon/HNLGen_ntuples/private_BToDMuN_HalfMu_Halfe_mass3p0_ctau184p0/step4_nj955.root\n'
p1259
aS'root://cms-xrd-global.cern.ch///store/user/ratramon/HNLGen_ntuples/private_BToDMuN_HalfMu_Halfe_mass3p0_ctau184p0/step4_nj956.root\n'
p1260
aS'root://cms-xrd-global.cern.ch///store/user/ratramon/HNLGen_ntuples/private_BToDMuN_HalfMu_Halfe_mass3p0_ctau184p0/step4_nj957.root\n'
p1261
aS'root://cms-xrd-global.cern.ch///store/user/ratramon/HNLGen_ntuples/private_BToDMuN_HalfMu_Halfe_mass3p0_ctau184p0/step4_nj958.root\n'
p1262
aS'root://cms-xrd-global.cern.ch///store/user/ratramon/HNLGen_ntuples/private_BToDMuN_HalfMu_Halfe_mass3p0_ctau184p0/step4_nj959.root\n'
p1263
aS'root://cms-xrd-global.cern.ch///store/user/ratramon/HNLGen_ntuples/private_BToDMuN_HalfMu_Halfe_mass3p0_ctau184p0/step4_nj96.root\n'
p1264
aS'root://cms-xrd-global.cern.ch///store/user/ratramon/HNLGen_ntuples/private_BToDMuN_HalfMu_Halfe_mass3p0_ctau184p0/step4_nj960.root\n'
p1265
aS'root://cms-xrd-global.cern.ch///store/user/ratramon/HNLGen_ntuples/private_BToDMuN_HalfMu_Halfe_mass3p0_ctau184p0/step4_nj961.root\n'
p1266
aS'root://cms-xrd-global.cern.ch///store/user/ratramon/HNLGen_ntuples/private_BToDMuN_HalfMu_Halfe_mass3p0_ctau184p0/step4_nj962.root\n'
p1267
aS'root://cms-xrd-global.cern.ch///store/user/ratramon/HNLGen_ntuples/private_BToDMuN_HalfMu_Halfe_mass3p0_ctau184p0/step4_nj963.root\n'
p1268
aS'root://cms-xrd-global.cern.ch///store/user/ratramon/HNLGen_ntuples/private_BToDMuN_HalfMu_Halfe_mass3p0_ctau184p0/step4_nj964.root\n'
p1269
aS'root://cms-xrd-global.cern.ch///store/user/ratramon/HNLGen_ntuples/private_BToDMuN_HalfMu_Halfe_mass3p0_ctau184p0/step4_nj965.root\n'
p1270
aS'root://cms-xrd-global.cern.ch///store/user/ratramon/HNLGen_ntuples/private_BToDMuN_HalfMu_Halfe_mass3p0_ctau184p0/step4_nj966.root\n'
p1271
aS'root://cms-xrd-global.cern.ch///store/user/ratramon/HNLGen_ntuples/private_BToDMuN_HalfMu_Halfe_mass3p0_ctau184p0/step4_nj967.root\n'
p1272
aS'root://cms-xrd-global.cern.ch///store/user/ratramon/HNLGen_ntuples/private_BToDMuN_HalfMu_Halfe_mass3p0_ctau184p0/step4_nj968.root\n'
p1273
aS'root://cms-xrd-global.cern.ch///store/user/ratramon/HNLGen_ntuples/private_BToDMuN_HalfMu_Halfe_mass3p0_ctau184p0/step4_nj969.root\n'
p1274
aS'root://cms-xrd-global.cern.ch///store/user/ratramon/HNLGen_ntuples/private_BToDMuN_HalfMu_Halfe_mass3p0_ctau184p0/step4_nj97.root\n'
p1275
aS'root://cms-xrd-global.cern.ch///store/user/ratramon/HNLGen_ntuples/private_BToDMuN_HalfMu_Halfe_mass3p0_ctau184p0/step4_nj970.root\n'
p1276
aS'root://cms-xrd-global.cern.ch///store/user/ratramon/HNLGen_ntuples/private_BToDMuN_HalfMu_Halfe_mass3p0_ctau184p0/step4_nj971.root\n'
p1277
aS'root://cms-xrd-global.cern.ch///store/user/ratramon/HNLGen_ntuples/private_BToDMuN_HalfMu_Halfe_mass3p0_ctau184p0/step4_nj972.root\n'
p1278
aS'root://cms-xrd-global.cern.ch///store/user/ratramon/HNLGen_ntuples/private_BToDMuN_HalfMu_Halfe_mass3p0_ctau184p0/step4_nj973.root\n'
p1279
aS'root://cms-xrd-global.cern.ch///store/user/ratramon/HNLGen_ntuples/private_BToDMuN_HalfMu_Halfe_mass3p0_ctau184p0/step4_nj974.root\n'
p1280
aS'root://cms-xrd-global.cern.ch///store/user/ratramon/HNLGen_ntuples/private_BToDMuN_HalfMu_Halfe_mass3p0_ctau184p0/step4_nj975.root\n'
p1281
aS'root://cms-xrd-global.cern.ch///store/user/ratramon/HNLGen_ntuples/private_BToDMuN_HalfMu_Halfe_mass3p0_ctau184p0/step4_nj976.root\n'
p1282
aS'root://cms-xrd-global.cern.ch///store/user/ratramon/HNLGen_ntuples/private_BToDMuN_HalfMu_Halfe_mass3p0_ctau184p0/step4_nj977.root\n'
p1283
aS'root://cms-xrd-global.cern.ch///store/user/ratramon/HNLGen_ntuples/private_BToDMuN_HalfMu_Halfe_mass3p0_ctau184p0/step4_nj978.root\n'
p1284
aS'root://cms-xrd-global.cern.ch///store/user/ratramon/HNLGen_ntuples/private_BToDMuN_HalfMu_Halfe_mass3p0_ctau184p0/step4_nj979.root\n'
p1285
aS'root://cms-xrd-global.cern.ch///store/user/ratramon/HNLGen_ntuples/private_BToDMuN_HalfMu_Halfe_mass3p0_ctau184p0/step4_nj98.root\n'
p1286
aS'root://cms-xrd-global.cern.ch///store/user/ratramon/HNLGen_ntuples/private_BToDMuN_HalfMu_Halfe_mass3p0_ctau184p0/step4_nj980.root\n'
p1287
aS'root://cms-xrd-global.cern.ch///store/user/ratramon/HNLGen_ntuples/private_BToDMuN_HalfMu_Halfe_mass3p0_ctau184p0/step4_nj981.root\n'
p1288
aS'root://cms-xrd-global.cern.ch///store/user/ratramon/HNLGen_ntuples/private_BToDMuN_HalfMu_Halfe_mass3p0_ctau184p0/step4_nj982.root\n'
p1289
aS'root://cms-xrd-global.cern.ch///store/user/ratramon/HNLGen_ntuples/private_BToDMuN_HalfMu_Halfe_mass3p0_ctau184p0/step4_nj983.root\n'
p1290
aS'root://cms-xrd-global.cern.ch///store/user/ratramon/HNLGen_ntuples/private_BToDMuN_HalfMu_Halfe_mass3p0_ctau184p0/step4_nj984.root\n'
p1291
aS'root://cms-xrd-global.cern.ch///store/user/ratramon/HNLGen_ntuples/private_BToDMuN_HalfMu_Halfe_mass3p0_ctau184p0/step4_nj985.root\n'
p1292
aS'root://cms-xrd-global.cern.ch///store/user/ratramon/HNLGen_ntuples/private_BToDMuN_HalfMu_Halfe_mass3p0_ctau184p0/step4_nj986.root\n'
p1293
aS'root://cms-xrd-global.cern.ch///store/user/ratramon/HNLGen_ntuples/private_BToDMuN_HalfMu_Halfe_mass3p0_ctau184p0/step4_nj987.root\n'
p1294
aS'root://cms-xrd-global.cern.ch///store/user/ratramon/HNLGen_ntuples/private_BToDMuN_HalfMu_Halfe_mass3p0_ctau184p0/step4_nj988.root\n'
p1295
aS'root://cms-xrd-global.cern.ch///store/user/ratramon/HNLGen_ntuples/private_BToDMuN_HalfMu_Halfe_mass3p0_ctau184p0/step4_nj989.root\n'
p1296
aS'root://cms-xrd-global.cern.ch///store/user/ratramon/HNLGen_ntuples/private_BToDMuN_HalfMu_Halfe_mass3p0_ctau184p0/step4_nj99.root\n'
p1297
aS'root://cms-xrd-global.cern.ch///store/user/ratramon/HNLGen_ntuples/private_BToDMuN_HalfMu_Halfe_mass3p0_ctau184p0/step4_nj990.root\n'
p1298
aS'root://cms-xrd-global.cern.ch///store/user/ratramon/HNLGen_ntuples/private_BToDMuN_HalfMu_Halfe_mass3p0_ctau184p0/step4_nj991.root\n'
p1299
aS'root://cms-xrd-global.cern.ch///store/user/ratramon/HNLGen_ntuples/private_BToDMuN_HalfMu_Halfe_mass3p0_ctau184p0/step4_nj992.root\n'
p1300
aS'root://cms-xrd-global.cern.ch///store/user/ratramon/HNLGen_ntuples/private_BToDMuN_HalfMu_Halfe_mass3p0_ctau184p0/step4_nj993.root\n'
p1301
aS'root://cms-xrd-global.cern.ch///store/user/ratramon/HNLGen_ntuples/private_BToDMuN_HalfMu_Halfe_mass3p0_ctau184p0/step4_nj994.root\n'
p1302
aS'root://cms-xrd-global.cern.ch///store/user/ratramon/HNLGen_ntuples/private_BToDMuN_HalfMu_Halfe_mass3p0_ctau184p0/step4_nj995.root\n'
p1303
aS'root://cms-xrd-global.cern.ch///store/user/ratramon/HNLGen_ntuples/private_BToDMuN_HalfMu_Halfe_mass3p0_ctau184p0/step4_nj996.root\n'
p1304
aS'root://cms-xrd-global.cern.ch///store/user/ratramon/HNLGen_ntuples/private_BToDMuN_HalfMu_Halfe_mass3p0_ctau184p0/step4_nj997.root\n'
p1305
aS'root://cms-xrd-global.cern.ch///store/user/ratramon/HNLGen_ntuples/private_BToDMuN_HalfMu_Halfe_mass3p0_ctau184p0/step4_nj998.root\n'
p1306
aS'root://cms-xrd-global.cern.ch///store/user/ratramon/HNLGen_ntuples/private_BToDMuN_HalfMu_Halfe_mass3p0_ctau184p0/step4_nj999.root\n'
p1307
asg67
I00
sbsg31
g3
(g9
g5
NtRp1308
(dp1309
g12
I00
sg13
S''
sg14
g15
((lp1310
S'maxMemoryMB'
p1311
aS'disableAutomaticOutputCollection'
p1312
aS'pluginName'
p1313
aS'allowUndistributedCMSSW'
p1314
aS'psetName'
p1315
aS'inputFiles'
p1316
atRp1317
sg20
g31
sg21
(dp1318
sg1313
S'Analysis'
p1319
sg23
g15
((ltRp1320
sg1314
I01
sg1315
S'/afs/cern.ch/work/r/ratramon/HNL/CommonFrame/CMSSW_10_2_15/src/PhysicsTools/BParkingNano/test/run_nano_HNLToL_cfg.py'
p1321
sg26
Nsg1316
(lp1322
S'/afs/cern.ch/work/r/ratramon/HNL/CommonFrame/CMSSW_10_2_15/src/PhysicsTools/BParkingNano/test/lowPtEleReg_2018_02062020_nv.db'
p1323
asg1312
I00
sg1311
I2500
sbsbsS'voGroup'
p1324
S''
sS'Server'
p1325
S'cmsweb.cern.ch'
p1326
sS'instance'
p1327
S'prod'
p1328
sS'RequestName'
p1329
V210829_071331:ratramon_crab_privateHNL_nano_Unresolved_Mass3_2021Aug29
p1330
sS'voRole'
p1331
S'NULL'
p1332
sS'Port'
p1333
S''
s.